
BitstreamLoader.elf:     file format elf32-littlenios2
BitstreamLoader.elf
architecture: nios2, flags 0x00000112:
EXEC_P, HAS_SYMS, D_PAGED
start address 0x0008022c

Program Header:
    LOAD off    0x00001000 vaddr 0x00080000 paddr 0x00080000 align 2**12
         filesz 0x00000020 memsz 0x00000020 flags r-x
    LOAD off    0x00001020 vaddr 0x00080020 paddr 0x00080020 align 2**12
         filesz 0x0000fec0 memsz 0x0000fec0 flags r-x
    LOAD off    0x00010ee0 vaddr 0x0008fee0 paddr 0x000919cc align 2**12
         filesz 0x00001aec memsz 0x00001aec flags rw-
    LOAD off    0x000134b8 vaddr 0x000934b8 paddr 0x000934b8 align 2**12
         filesz 0x00000000 memsz 0x00000160 flags rw-

Sections:
Idx Name          Size      VMA       LMA       File off  Algn
  0 .entry        00000020  00080000  00080000  00001000  2**5
                  CONTENTS, ALLOC, LOAD, READONLY, CODE
  1 .exceptions   0000020c  00080020  00080020  00001020  2**2
                  CONTENTS, ALLOC, LOAD, READONLY, CODE
  2 .text         0000f82c  0008022c  0008022c  0000122c  2**2
                  CONTENTS, ALLOC, LOAD, READONLY, CODE
  3 .rodata       00000488  0008fa58  0008fa58  00010a58  2**2
                  CONTENTS, ALLOC, LOAD, READONLY, DATA
  4 .rwdata       00001aec  0008fee0  000919cc  00010ee0  2**2
                  CONTENTS, ALLOC, LOAD, DATA, SMALL_DATA
  5 .bss          00000160  000934b8  000934b8  000134b8  2**2
                  ALLOC, SMALL_DATA
  6 .onchip_memory2 00000000  00093618  00093618  000129cc  2**0
                  CONTENTS
  7 .bitstream_memory 00000000  00100000  00100000  000129cc  2**0
                  CONTENTS
  8 .comment      00000039  00000000  00000000  000129cc  2**0
                  CONTENTS, READONLY
  9 .debug_aranges 00000d50  00000000  00000000  00012a08  2**3
                  CONTENTS, READONLY, DEBUGGING
 10 .debug_info   00025a2a  00000000  00000000  00013758  2**0
                  CONTENTS, READONLY, DEBUGGING
 11 .debug_abbrev 00009679  00000000  00000000  00039182  2**0
                  CONTENTS, READONLY, DEBUGGING
 12 .debug_line   0000b6f5  00000000  00000000  000427fb  2**0
                  CONTENTS, READONLY, DEBUGGING
 13 .debug_frame  00002160  00000000  00000000  0004def0  2**2
                  CONTENTS, READONLY, DEBUGGING
 14 .debug_str    0000383c  00000000  00000000  00050050  2**0
                  CONTENTS, READONLY, DEBUGGING
 15 .debug_loc    00017357  00000000  00000000  0005388c  2**0
                  CONTENTS, READONLY, DEBUGGING
 16 .debug_alt_sim_info 00000010  00000000  00000000  0006abe4  2**2
                  CONTENTS, READONLY, DEBUGGING
 17 .debug_ranges 00001350  00000000  00000000  0006abf8  2**3
                  CONTENTS, READONLY, DEBUGGING
 18 .thread_model 00000003  00000000  00000000  0006f114  2**0
                  CONTENTS, READONLY
 19 .cpu          0000000a  00000000  00000000  0006f117  2**0
                  CONTENTS, READONLY
 20 .qsys         00000001  00000000  00000000  0006f121  2**0
                  CONTENTS, READONLY
 21 .simulation_enabled 00000001  00000000  00000000  0006f122  2**0
                  CONTENTS, READONLY
 22 .stderr_dev   00000009  00000000  00000000  0006f123  2**0
                  CONTENTS, READONLY
 23 .stdin_dev    00000009  00000000  00000000  0006f12c  2**0
                  CONTENTS, READONLY
 24 .stdout_dev   00000009  00000000  00000000  0006f135  2**0
                  CONTENTS, READONLY
 25 .sopc_system_name 0000000f  00000000  00000000  0006f13e  2**0
                  CONTENTS, READONLY
 26 .quartus_project_dir 00000059  00000000  00000000  0006f14d  2**0
                  CONTENTS, READONLY
 27 .jdi          0000440b  00000000  00000000  0006f1a6  2**0
                  CONTENTS, READONLY
 28 .sopcinfo     0005fb94  00000000  00000000  000735b1  2**0
                  CONTENTS, READONLY
SYMBOL TABLE:
00080000 l    d  .entry	00000000 .entry
00080020 l    d  .exceptions	00000000 .exceptions
0008022c l    d  .text	00000000 .text
0008fa58 l    d  .rodata	00000000 .rodata
0008fee0 l    d  .rwdata	00000000 .rwdata
000934b8 l    d  .bss	00000000 .bss
00093618 l    d  .onchip_memory2	00000000 .onchip_memory2
00100000 l    d  .bitstream_memory	00000000 .bitstream_memory
00000000 l    d  .comment	00000000 .comment
00000000 l    d  .debug_aranges	00000000 .debug_aranges
00000000 l    d  .debug_info	00000000 .debug_info
00000000 l    d  .debug_abbrev	00000000 .debug_abbrev
00000000 l    d  .debug_line	00000000 .debug_line
00000000 l    d  .debug_frame	00000000 .debug_frame
00000000 l    d  .debug_str	00000000 .debug_str
00000000 l    d  .debug_loc	00000000 .debug_loc
00000000 l    d  .debug_alt_sim_info	00000000 .debug_alt_sim_info
00000000 l    d  .debug_ranges	00000000 .debug_ranges
00000000 l    df *ABS*	00000000 ../BitstreamLoader_bsp//obj/HAL/src/crt0.o
00080264 l       .text	00000000 alt_after_alt_main
00000000 l    df *ABS*	00000000 alt_irq_handler.c
00000000 l    df *ABS*	00000000 alt_instruction_exception_entry.c
00000000 l    df *ABS*	00000000 main.c
00000000 l    df *ABS*	00000000 getc.c
00000000 l    df *ABS*	00000000 impure.c
0008fee0 l     O .rwdata	00000424 impure_data
00000000 l    df *ABS*	00000000 printf.c
00000000 l    df *ABS*	00000000 puts.c
00000000 l    df *ABS*	00000000 rget.c
00000000 l    df *ABS*	00000000 strlen.c
00000000 l    df *ABS*	00000000 vfprintf.c
0008fc32 l     O .rodata	00000010 zeroes.4155
0008fc42 l     O .rodata	00000010 blanks.4154
00000000 l    df *ABS*	00000000 wsetup.c
00000000 l    df *ABS*	00000000 dtoa.c
00082bec l     F .text	00000228 quorem
00000000 l    df *ABS*	00000000 fflush.c
00000000 l    df *ABS*	00000000 findfp.c
000846c4 l     F .text	00000008 __fp_lock
000846cc l     F .text	00000008 __fp_unlock
00000000 l    df *ABS*	00000000 mallocr.c
00000000 l    df *ABS*	00000000 fvwrite.c
00000000 l    df *ABS*	00000000 fwalk.c
00000000 l    df *ABS*	00000000 locale.c
00090324 l     O .rwdata	00000020 lc_ctype_charset
00090304 l     O .rwdata	00000020 lc_message_charset
00090344 l     O .rwdata	00000038 lconv
00000000 l    df *ABS*	00000000 makebuf.c
00000000 l    df *ABS*	00000000 mallocr.c
00000000 l    df *ABS*	00000000 memchr.c
00000000 l    df *ABS*	00000000 memcpy.c
00000000 l    df *ABS*	00000000 memmove.c
00000000 l    df *ABS*	00000000 memset.c
00000000 l    df *ABS*	00000000 mprec.c
0008fc70 l     O .rodata	0000000c p05.2652
00000000 l    df *ABS*	00000000 mallocr.c
00000000 l    df *ABS*	00000000 refill.c
0008789c l     F .text	0000001c lflush
00000000 l    df *ABS*	00000000 s_fpclassify.c
00000000 l    df *ABS*	00000000 sbrkr.c
00000000 l    df *ABS*	00000000 stdio.c
00000000 l    df *ABS*	00000000 strcmp.c
00000000 l    df *ABS*	00000000 vfprintf.c
00087d3c l     F .text	000000fc __sprint_r.part.0
0008fda4 l     O .rodata	00000010 blanks.4099
0008fd94 l     O .rodata	00000010 zeroes.4100
00000000 l    df *ABS*	00000000 writer.c
00000000 l    df *ABS*	00000000 closer.c
00000000 l    df *ABS*	00000000 mallocr.c
00000000 l    df *ABS*	00000000 fclose.c
00000000 l    df *ABS*	00000000 fputwc.c
00000000 l    df *ABS*	00000000 fstatr.c
00000000 l    df *ABS*	00000000 int_errno.c
00000000 l    df *ABS*	00000000 isattyr.c
00000000 l    df *ABS*	00000000 lseekr.c
00000000 l    df *ABS*	00000000 readr.c
00000000 l    df *ABS*	00000000 wbuf.c
00000000 l    df *ABS*	00000000 wcrtomb.c
00000000 l    df *ABS*	00000000 wctomb_r.c
00000000 l    df *ABS*	00000000 libgcc2.c
00000000 l    df *ABS*	00000000 libgcc2.c
00000000 l    df *ABS*	00000000 lib2-divmod.c
0008a964 l     F .text	00000070 udivmodsi4
00000000 l    df *ABS*	00000000 lib2-mul.c
00000000 l    df *ABS*	00000000 adddf3.c
00000000 l    df *ABS*	00000000 divdf3.c
00000000 l    df *ABS*	00000000 eqdf2.c
00000000 l    df *ABS*	00000000 gedf2.c
00000000 l    df *ABS*	00000000 ledf2.c
00000000 l    df *ABS*	00000000 muldf3.c
00000000 l    df *ABS*	00000000 subdf3.c
00000000 l    df *ABS*	00000000 fixdfsi.c
00000000 l    df *ABS*	00000000 floatsidf.c
00000000 l    df *ABS*	00000000 floatunsidf.c
00000000 l    df *ABS*	00000000 libgcc2.c
00000000 l    df *ABS*	00000000 libgcc2.c
00000000 l    df *ABS*	00000000 alt_close.c
0008d224 l     F .text	00000050 alt_get_errno
00000000 l    df *ABS*	00000000 alt_dev.c
0008d344 l     F .text	0000002c alt_dev_null_write
00000000 l    df *ABS*	00000000 alt_errno.c
00000000 l    df *ABS*	00000000 alt_fstat.c
0008d370 l     F .text	00000050 alt_get_errno
00000000 l    df *ABS*	00000000 alt_isatty.c
0008d474 l     F .text	00000050 alt_get_errno
00000000 l    df *ABS*	00000000 alt_load.c
0008d56c l     F .text	00000064 alt_load_section
00000000 l    df *ABS*	00000000 alt_lseek.c
0008d650 l     F .text	00000050 alt_get_errno
00000000 l    df *ABS*	00000000 alt_main.c
00000000 l    df *ABS*	00000000 alt_malloc_lock.c
00000000 l    df *ABS*	00000000 alt_read.c
0008d830 l     F .text	00000050 alt_get_errno
00000000 l    df *ABS*	00000000 alt_release_fd.c
00000000 l    df *ABS*	00000000 alt_sbrk.c
000919bc l     O .rwdata	00000004 heap_end
00000000 l    df *ABS*	00000000 alt_write.c
0008daa8 l     F .text	00000050 alt_get_errno
00000000 l    df *ABS*	00000000 alt_sys_init.c
0008dbec l     F .text	00000038 alt_dev_reg
0009092c l     O .rwdata	00001060 jtag_uart
00000000 l    df *ABS*	00000000 altera_avalon_jtag_uart_fd.c
00000000 l    df *ABS*	00000000 altera_avalon_jtag_uart_init.c
0008ded8 l     F .text	000001fc altera_avalon_jtag_uart_irq
0008e0d4 l     F .text	000000a4 altera_avalon_jtag_uart_timeout
00000000 l    df *ABS*	00000000 altera_avalon_jtag_uart_ioctl.c
00000000 l    df *ABS*	00000000 altera_avalon_jtag_uart_read.c
00000000 l    df *ABS*	00000000 altera_avalon_jtag_uart_write.c
00000000 l    df *ABS*	00000000 altera_avalon_timer_sc.c
0008e6ec l     F .text	00000074 alt_avalon_timer_sc_irq
00000000 l    df *ABS*	00000000 alt_alarm_start.c
00000000 l    df *ABS*	00000000 alt_dcache_flush_all.c
00000000 l    df *ABS*	00000000 alt_dev_llist_insert.c
0008e944 l     F .text	00000050 alt_get_errno
00000000 l    df *ABS*	00000000 alt_do_ctors.c
00000000 l    df *ABS*	00000000 alt_do_dtors.c
00000000 l    df *ABS*	00000000 alt_icache_flush_all.c
00000000 l    df *ABS*	00000000 alt_iic.c
00000000 l    df *ABS*	00000000 alt_iic_isr_register.c
00000000 l    df *ABS*	00000000 alt_io_redirect.c
0008edd0 l     F .text	000000e0 alt_open_fd
00000000 l    df *ABS*	00000000 alt_irq_vars.c
00000000 l    df *ABS*	00000000 alt_open.c
0008ef28 l     F .text	00000050 alt_get_errno
0008ef78 l     F .text	000000f4 alt_file_locked
00000000 l    df *ABS*	00000000 alt_tick.c
00000000 l    df *ABS*	00000000 altera_nios2_gen2_irq.c
00000000 l    df *ABS*	00000000 alt_find_dev.c
00000000 l    df *ABS*	00000000 alt_find_file.c
00000000 l    df *ABS*	00000000 alt_get_fd.c
00000000 l    df *ABS*	00000000 atexit.c
00000000 l    df *ABS*	00000000 exit.c
00000000 l    df *ABS*	00000000 memcmp.c
00000000 l    df *ABS*	00000000 __atexit.c
00000000 l    df *ABS*	00000000 __call_atexit.c
00000000 l    df *ABS*	00000000 alt_exit.c
000934ec g     O .bss	00000004 alt_instruction_exception_handler
000871c4 g     F .text	00000074 _mprec_log10
000872b0 g     F .text	00000088 __any_on
00089804 g     F .text	00000064 _isatty_r
0008fc7c g     O .rodata	00000028 __mprec_tinytens
0008d778 g     F .text	00000078 alt_main
0008075c g     F .text	000000b8 _puts_r
00093518 g     O .bss	00000100 alt_irq
00089868 g     F .text	0000006c _lseek_r
000919cc g       *ABS*	00000000 __flash_rwdata_start
0008bcb8 g     F .text	00000084 .hidden __eqdf2
00093618 g       *ABS*	00000000 __alt_heap_start
00080720 g     F .text	0000003c printf
00089adc g     F .text	0000009c _wcrtomb_r
00087c34 g     F .text	0000005c __sseek
00084770 g     F .text	0000019c __sinit
00089940 g     F .text	00000180 __swbuf_r
00085480 g     F .text	00000070 _setlocale_r
000846e0 g     F .text	00000078 __sfmoreglue
0008d810 g     F .text	00000020 __malloc_unlock
000860c0 g     F .text	0000013c memmove
00084758 g     F .text	00000018 _cleanup
00086310 g     F .text	000000a8 _Balloc
0008bd3c g     F .text	000000d8 .hidden __gtdf2
0008f364 g     F .text	00000020 altera_nios2_gen2_irq_init
00000000  w      *UND*	00000000 __errno
00080000 g     F .entry	0000000c __reset
00080020 g       *ABS*	00000000 __flash_exceptions_start
0008979c g     F .text	00000068 _fstat_r
000934d0 g     O .bss	00000004 errno
0008089c g     F .text	00000014 __srget
00087bb0 g     F .text	00000008 __seofread
000934d8 g     O .bss	00000004 alt_argv
0009998c g       *ABS*	00000000 _gp
000907ac g     O .rwdata	00000180 alt_fd_list
000805e8 g     F .text	00000080 _getc_r
00080668 g     F .text	0000008c getc
0008f384 g     F .text	00000090 alt_find_dev
00085fb4 g     F .text	0000010c memcpy
000846d4 g     F .text	0000000c _cleanup_r
0008d008 g     F .text	000000d0 .hidden __floatsidf
0008eeb0 g     F .text	00000078 alt_io_redirect
0008be14 g     F .text	000000ec .hidden __ltdf2
0008fa58 g       *ABS*	00000000 __DTOR_END__
00080814 g     F .text	00000014 puts
0008f5fc g     F .text	000000a0 alt_exception_cause_generated_bad_addr
00087a90 g     F .text	00000068 __fpclassifyd
00087124 g     F .text	000000a0 __ratio
00089298 g     F .text	00000024 __vfiprintf_internal
0008e2cc g     F .text	00000208 altera_avalon_jtag_uart_read
00000000  w      *UND*	00000000 malloc
000806f4 g     F .text	0000002c _printf_r
0008aa68 g     F .text	00000008 .hidden __udivsi3
0008d4c4 g     F .text	000000a8 isatty
0008fccc g     O .rodata	000000c8 __mprec_tens
000854f0 g     F .text	0000000c __locale_charset
000934cc g     O .bss	00000004 __malloc_top_pad
00091994 g     O .rwdata	00000004 __mb_cur_max
00085520 g     F .text	0000000c _localeconv_r
00086740 g     F .text	0000003c __i2b
00084e74 g     F .text	000004ac __sfvwrite_r
00087af8 g     F .text	00000064 _sbrk_r
000898d4 g     F .text	0000006c _read_r
000919b4 g     O .rwdata	00000004 alt_max_fd
00089464 g     F .text	00000128 _fclose_r
00084694 g     F .text	00000030 fflush
000934c8 g     O .bss	00000004 __malloc_max_sbrked_mem
0008aaa0 g     F .text	0000087c .hidden __adddf3
00086ef0 g     F .text	000000f0 __b2d
0008a330 g     F .text	00000634 .hidden __umoddi3
0008d6a0 g     F .text	000000d8 lseek
0009198c g     O .rwdata	00000004 _global_impure_ptr
00087338 g     F .text	00000564 _realloc_r
00093618 g       *ABS*	00000000 __bss_end
0008ece0 g     F .text	000000f0 alt_iic_isr_register
0008f260 g     F .text	00000104 alt_tick
00089cdc g     F .text	00000654 .hidden __udivdi3
000895a0 g     F .text	00000184 _fputwc_r
0008fca4 g     O .rodata	00000028 __mprec_bigtens
00086524 g     F .text	00000104 __s2b
0008d0d8 g     F .text	000000a0 .hidden __floatunsidf
00086c80 g     F .text	00000060 __mcmp
00084a38 g     F .text	00000018 __fp_lock_all
0008ec94 g     F .text	0000004c alt_ic_irq_enabled
0008f1c8 g     F .text	00000098 alt_alarm_stop
000934e0 g     O .bss	00000004 alt_irq_active
000800fc g     F .exceptions	000000d0 alt_irq_handler
00090784 g     O .rwdata	00000028 alt_dev_null
0008e928 g     F .text	0000001c alt_dcache_flush_all
00086628 g     F .text	00000068 __hi0bits
0008cf88 g     F .text	00000080 .hidden __fixdfsi
000919cc g       *ABS*	00000000 __ram_rwdata_end
000919ac g     O .rwdata	00000008 alt_dev_list
0008daf8 g     F .text	000000f4 write
0008fee0 g       *ABS*	00000000 __ram_rodata_end
0008d3c0 g     F .text	000000b4 fstat
0008be14 g     F .text	000000ec .hidden __ledf2
00100000 g       *ABS*	00000000 __alt_mem_bitstream_memory
000869e8 g     F .text	00000148 __pow5mult
00087e50 g     F .text	00001448 ___vfiprintf_internal_r
000934c0 g     O .bss	00000004 __nlocale_changed
0008aa70 g     F .text	00000008 .hidden __umodsi3
00093618 g       *ABS*	00000000 end
0008de18 g     F .text	000000c0 altera_avalon_jtag_uart_init
000801cc g     F .exceptions	00000060 alt_instruction_exception_entry
0008fa58 g       *ABS*	00000000 __CTOR_LIST__
000c0000 g       *ABS*	00000000 __alt_stack_pointer
0008e760 g     F .text	00000088 alt_avalon_timer_sc_init
0008d178 g     F .text	000000ac .hidden __clzsi2
0008e4d4 g     F .text	00000218 altera_avalon_jtag_uart_write
00084a28 g     F .text	00000004 __sfp_lock_acquire
00085ecc g     F .text	000000e8 memchr
0008093c g     F .text	00002154 ___vfprintf_internal_r
00084ba4 g     F .text	000002d0 _free_r
000854fc g     F .text	00000010 __locale_mb_cur_max
0008f880 g     F .text	000001a4 __call_exitprocs
00080828 g     F .text	00000074 __srget_r
000934bc g     O .bss	00000004 __mlocale_changed
00091998 g     O .rwdata	00000004 __malloc_sbrk_base
0008022c g     F .text	0000003c _start
000934e4 g     O .bss	00000004 _alt_tick_rate
00086b30 g     F .text	00000150 __lshift
000934e8 g     O .bss	00000004 _alt_nticks
0008d880 g     F .text	000000f8 read
0008dc58 g     F .text	0000005c alt_sys_init
0008f764 g     F .text	0000011c __register_exitproc
0008677c g     F .text	0000026c __multiply
0008e178 g     F .text	00000068 altera_avalon_jtag_uart_close
0008aa78 g     F .text	00000028 .hidden __mulsi3
0008fee0 g       *ABS*	00000000 __ram_rwdata_start
0008fa58 g       *ABS*	00000000 __ram_rodata_start
000934f0 g     O .bss	00000028 __malloc_current_mallinfo
00086fe0 g     F .text	00000144 __d2b
0008dcb4 g     F .text	00000060 altera_avalon_jtag_uart_read_fd
0008f528 g     F .text	000000d4 alt_get_fd
00089328 g     F .text	00000064 _close_r
0008f6e8 g     F .text	0000007c memcmp
0008dd74 g     F .text	00000050 altera_avalon_jtag_uart_close_fd
00093618 g       *ABS*	00000000 __alt_stack_base
0008ddc4 g     F .text	00000054 altera_avalon_jtag_uart_ioctl_fd
00082ab4 g     F .text	00000138 __swsetup_r
0008b31c g     F .text	0000099c .hidden __divdf3
0008490c g     F .text	0000011c __sfp
00087238 g     F .text	00000078 __copybits
0009037c g     O .rwdata	00000408 __malloc_av_
00084a34 g     F .text	00000004 __sinit_lock_release
0008bf00 g     F .text	00000800 .hidden __muldf3
00087b5c g     F .text	00000054 __sread
0008f414 g     F .text	00000114 alt_find_file
0008e994 g     F .text	000000a0 alt_dev_llist_insert
0008d7f0 g     F .text	00000020 __malloc_lock
0008d9f8 g     F .text	000000b0 sbrk
00084450 g     F .text	00000244 _fflush_r
0008938c g     F .text	000000d8 _calloc_r
000934b8 g       *ABS*	00000000 __bss_start
000861fc g     F .text	00000114 memset
00080268 g     F .text	00000380 main
000934dc g     O .bss	00000004 alt_envp
000934c4 g     O .bss	00000004 __malloc_max_total_mem
0008dd14 g     F .text	00000060 altera_avalon_jtag_uart_write_fd
00089ac0 g     F .text	0000001c __swbuf
00087c90 g     F .text	00000008 __sclose
000c0000 g       *ABS*	00000000 __alt_heap_limit
0008958c g     F .text	00000014 fclose
00082e14 g     F .text	0000163c _dtoa_r
00085708 g     F .text	000007c4 _malloc_r
00089c50 g     F .text	00000030 __ascii_wctomb
000919b8 g     O .rwdata	00000004 alt_errno
00085320 g     F .text	000000a8 _fwalk
0008a9d4 g     F .text	00000048 .hidden __divsi3
00084a68 g     F .text	0000013c _malloc_trim_r
0008fa58 g       *ABS*	00000000 __CTOR_END__
00087c98 g     F .text	000000a4 strcmp
0008fa58 g       *ABS*	00000000 __flash_rodata_start
0008fa58 g       *ABS*	00000000 __DTOR_LIST__
0008bcb8 g     F .text	00000084 .hidden __nedf2
0008dc24 g     F .text	00000034 alt_irq_init
0008d978 g     F .text	00000080 alt_release_fd
0008fdb4 g     O .rodata	00000100 .hidden __clz_tab
000934b8 g     O .bss	00000004 _PathLocale
0008f69c g     F .text	00000014 atexit
000892bc g     F .text	0000006c _write_r
0008552c g     F .text	0000001c setlocale
00091990 g     O .rwdata	00000004 _impure_ptr
000934d4 g     O .bss	00000004 alt_argc
0008ea90 g     F .text	0000005c _do_dtors
00085518 g     F .text	00000008 __locale_cjk_lang
000878b8 g     F .text	000001d8 __srefill_r
00080020 g       .exceptions	00000000 alt_irq_entry
00086e90 g     F .text	00000060 __ulp
00084a50 g     F .text	00000018 __fp_unlock_all
000919a4 g     O .rwdata	00000008 alt_fs_list
00080020 g       *ABS*	00000000 __ram_exceptions_start
00085548 g     F .text	0000000c localeconv
00080000 g       *ABS*	00000000 __alt_mem_onchip_memory2
0008eb08 g     F .text	00000050 alt_ic_isr_register
000919cc g       *ABS*	00000000 _edata
00093618 g       *ABS*	00000000 _end
0008022c g       *ABS*	00000000 __ram_exceptions_end
0008e1e0 g     F .text	000000ec altera_avalon_jtag_uart_ioctl
0008ebf4 g     F .text	000000a0 alt_ic_irq_disable
00087bb8 g     F .text	0000007c __swrite
0009199c g     O .rwdata	00000004 __malloc_trim_threshold
0008550c g     F .text	0000000c __locale_msgcharset
0008f6b0 g     F .text	00000038 exit
000853c8 g     F .text	000000b8 _fwalk_reent
00086ce0 g     F .text	000001b0 __mdiff
0008aa1c g     F .text	0000004c .hidden __modsi3
000c0000 g       *ABS*	00000000 __alt_data_end
00080020 g     F .exceptions	00000000 alt_exception
00084a2c g     F .text	00000004 __sfp_lock_release
0008fa24 g     F .text	00000034 _exit
0008e7e8 g     F .text	00000140 alt_alarm_start
00085554 g     F .text	000001b4 __smakebuf_r
000808b0 g     F .text	0000008c strlen
0008f06c g     F .text	0000015c open
0008bd3c g     F .text	000000d8 .hidden __gedf2
000919a0 g     O .rwdata	00000004 __wctomb
00087e38 g     F .text	00000018 __sprint_r
0008eaec g     F .text	0000001c alt_icache_flush_all
000919c0 g     O .rwdata	00000004 alt_priority_mask
0008eb58 g     F .text	0000009c alt_ic_irq_enable
00082a90 g     F .text	00000024 __vfprintf_internal
00089c80 g     F .text	0000005c _wctomb_r
0008c700 g     F .text	00000888 .hidden __subdf3
00086690 g     F .text	000000b0 __lo0bits
000919c4 g     O .rwdata	00000008 alt_alarm_list
0008ea34 g     F .text	0000005c _do_ctors
00089b78 g     F .text	000000d8 wcrtomb
0008d274 g     F .text	000000d0 close
0008d5d0 g     F .text	00000080 alt_load
00089724 g     F .text	00000078 fputwc
00000000  w      *UND*	00000000 free
00084a30 g     F .text	00000004 __sinit_lock_acquire
000863e0 g     F .text	00000144 __multadd
000863b8 g     F .text	00000028 _Bfree



Disassembly of section .entry:

00080000 <__reset>:
 * Jump to the _start entry point in the .text section if reset code
 * is allowed or if optimizing for RTL simulation.
 */
#if defined(ALT_ALLOW_CODE_AT_RESET) || defined(ALT_SIM_OPTIMIZE)
    /* Jump to the _start entry point in the .text section. */
    movhi r1, %hi(_start)
   80000:	00400234 	movhi	at,8
    ori r1, r1, %lo(_start)
   80004:	08408b14 	ori	at,at,556
    jmp r1
   80008:	0800683a 	jmp	at
	...

Disassembly of section .exceptions:

00080020 <alt_exception>:

#else /* ALT_EXCEPTION_STACK disabled */
        /* 
         * Reserve space on normal stack for registers about to be pushed.
         */
        addi  sp, sp, -76
   80020:	deffed04 	addi	sp,sp,-76
         * documentation for details).
         *
         * Leave a gap in the stack frame at 4(sp) for the muldiv handler to
         * store zero into.
         */
        stw   ra,  0(sp)
   80024:	dfc00015 	stw	ra,0(sp)
        stw   r1,   8(sp)
   80028:	d8400215 	stw	at,8(sp)
        stw   r2,  12(sp)
   8002c:	d8800315 	stw	r2,12(sp)
        stw   r3,  16(sp)
   80030:	d8c00415 	stw	r3,16(sp)
        stw   r4,  20(sp)
   80034:	d9000515 	stw	r4,20(sp)
        stw   r5,  24(sp)
   80038:	d9400615 	stw	r5,24(sp)
        stw   r6,  28(sp)
   8003c:	d9800715 	stw	r6,28(sp)
        stw   r7,  32(sp)
   80040:	d9c00815 	stw	r7,32(sp)
        rdctl r5, estatus   /* Read early to avoid usage stall */
   80044:	000b307a 	rdctl	r5,estatus
        stw   r8,  36(sp)
   80048:	da000915 	stw	r8,36(sp)
        stw   r9,  40(sp)
   8004c:	da400a15 	stw	r9,40(sp)
        stw   r10, 44(sp)
   80050:	da800b15 	stw	r10,44(sp)
        stw   r11, 48(sp)
   80054:	dac00c15 	stw	r11,48(sp)
        stw   r12, 52(sp)
   80058:	db000d15 	stw	r12,52(sp)
        stw   r13, 56(sp)
   8005c:	db400e15 	stw	r13,56(sp)
        stw   r14, 60(sp)
   80060:	db800f15 	stw	r14,60(sp)
        stw   r15, 64(sp)
   80064:	dbc01015 	stw	r15,64(sp)
        /*
         * ea-4 contains the address of the instruction being executed
         * when the exception occured. For interrupt exceptions, we will
         * will be re-issue the isntruction. Store it in 72(sp)
         */
        stw   r5,  68(sp)  /* estatus */
   80068:	d9401115 	stw	r5,68(sp)
        addi  r15, ea, -4  /* instruction that caused exception */
   8006c:	ebffff04 	addi	r15,ea,-4
        stw   r15,  72(sp)
   80070:	dbc01215 	stw	r15,72(sp)
#else
        /*
         * Test to see if the exception was a software exception or caused 
         * by an external interrupt, and vector accordingly.
         */
        rdctl r4, ipending
   80074:	0009313a 	rdctl	r4,ipending
        andi  r2, r5, 1
   80078:	2880004c 	andi	r2,r5,1
        beq   r2, zero, .Lnot_irq
   8007c:	10000326 	beq	r2,zero,8008c <alt_exception+0x6c>
        beq   r4, zero, .Lnot_irq
   80080:	20000226 	beq	r4,zero,8008c <alt_exception+0x6c>
        /*
         * Now that all necessary registers have been preserved, call 
         * alt_irq_handler() to process the interrupts.
         */

        call alt_irq_handler
   80084:	00800fc0 	call	800fc <alt_irq_handler>

        .section .exceptions.irqreturn, "xa"

        br    .Lexception_exit
   80088:	00000706 	br	800a8 <alt_exception+0x88>
         * upon completion, so we write ea (address of instruction *after*
         * the one where the exception occured) into 72(sp). The actual
         * instruction that caused the exception is written in r2, which these
         * handlers will utilize.
         */
        stw   ea,  72(sp)  /* Don't re-issue */
   8008c:	df401215 	stw	ea,72(sp)
        ldhu.n  r2, 0(r4)
        ldhu.n  r3, 2(r4)
        slli.n  r3, r3, 16
        or.n    r2, r2, r3 /* Instruction that caused exception */
#else
        ldw   r2, -4(ea)   /* Instruction that caused exception */
   80090:	e8bfff17 	ldw	r2,-4(ea)
         * debugger is present) or go into an infinite loop since the
         * handling behavior is undefined; in that case we will not return here.
         */

        /* Load exception-causing address as first argument (r4) */
        addi   r4, ea, -4
   80094:	e93fff04 	addi	r4,ea,-4

        /* Call the instruction-exception entry */
        call   alt_instruction_exception_entry
   80098:	00801cc0 	call	801cc <alt_instruction_exception_entry>
         * instruction
         *
         * Return code was 0: Skip. The instruction after the exception is
         * already stored in 72(sp).
         */
        bne   r2, r0, .Lexception_exit
   8009c:	1000021e 	bne	r2,zero,800a8 <alt_exception+0x88>

        /*
         * Otherwise, modify 72(sp) to re-issue the instruction that caused the
         * exception.
         */
        addi  r15, ea, -4  /* instruction that caused exception */
   800a0:	ebffff04 	addi	r15,ea,-4
        stw   r15,  72(sp)
   800a4:	dbc01215 	stw	r15,72(sp)
        /* 
         * Restore the saved registers, so that all general purpose registers 
         * have been restored to their state at the time the interrupt occured.
         */

        ldw   r5,  68(sp)
   800a8:	d9401117 	ldw	r5,68(sp)
        ldw   ea,  72(sp)  /* This becomes the PC once eret is executed */
   800ac:	df401217 	ldw	ea,72(sp)
        ldw   ra,   0(sp)
   800b0:	dfc00017 	ldw	ra,0(sp)

        wrctl estatus, r5
   800b4:	2801707a 	wrctl	estatus,r5

        ldw   r1,   8(sp)
   800b8:	d8400217 	ldw	at,8(sp)
        ldw   r2,  12(sp)
   800bc:	d8800317 	ldw	r2,12(sp)
        ldw   r3,  16(sp)
   800c0:	d8c00417 	ldw	r3,16(sp)
        ldw   r4,  20(sp)
   800c4:	d9000517 	ldw	r4,20(sp)
        ldw   r5,  24(sp)
   800c8:	d9400617 	ldw	r5,24(sp)
        ldw   r6,  28(sp)
   800cc:	d9800717 	ldw	r6,28(sp)
        ldw   r7,  32(sp)
   800d0:	d9c00817 	ldw	r7,32(sp)

#if defined(ALT_EXCEPTION_STACK) && defined(ALT_STACK_CHECK)
        ldw   et, %gprel(alt_exception_old_stack_limit)(gp)
#endif

        ldw   r8,  36(sp)
   800d4:	da000917 	ldw	r8,36(sp)
        ldw   r9,  40(sp)
   800d8:	da400a17 	ldw	r9,40(sp)
        ldw   r10, 44(sp)
   800dc:	da800b17 	ldw	r10,44(sp)
        ldw   r11, 48(sp)
   800e0:	dac00c17 	ldw	r11,48(sp)
        ldw   r12, 52(sp)
   800e4:	db000d17 	ldw	r12,52(sp)
        ldw   r13, 56(sp)
   800e8:	db400e17 	ldw	r13,56(sp)
        ldw   r14, 60(sp)
   800ec:	db800f17 	ldw	r14,60(sp)
        ldw   r15, 64(sp)
   800f0:	dbc01017 	ldw	r15,64(sp)
        stw   et, %gprel(alt_stack_limit_value)(gp)
        stw   zero, %gprel(alt_exception_old_stack_limit)(gp)
#endif /* ALT_STACK_CHECK */
        ldw   sp,  76(sp)
#else /* ALT_EXCEPTION_STACK disabled */
        addi  sp, sp, 76
   800f4:	dec01304 	addi	sp,sp,76

        /*
         * Return to the interrupted instruction.
         */

        eret
   800f8:	ef80083a 	eret

000800fc <alt_irq_handler>:
 * instruction is present if the macro ALT_CI_INTERRUPT_VECTOR defined.
 */

void alt_irq_handler (void) __attribute__ ((section (".exceptions")));
void alt_irq_handler (void)
{
   800fc:	defff904 	addi	sp,sp,-28
   80100:	dfc00615 	stw	ra,24(sp)
   80104:	df000515 	stw	fp,20(sp)
   80108:	df000504 	addi	fp,sp,20
  
  /*
   * Notify the operating system that we are at interrupt level.
   */ 
  
  ALT_OS_INT_ENTER();
   8010c:	0001883a 	nop
#ifndef NIOS2_EIC_PRESENT
static ALT_INLINE alt_u32 ALT_ALWAYS_INLINE alt_irq_pending (void)
{
  alt_u32 active;

  NIOS2_READ_IPENDING (active);
   80110:	0005313a 	rdctl	r2,ipending
   80114:	e0bffe15 	stw	r2,-8(fp)

  return active;
   80118:	e0bffe17 	ldw	r2,-8(fp)
   * Consider the case where the high priority interupt is asserted during
   * the interrupt entry sequence for a lower priority interrupt to see why
   * this is the case.
   */

  active = alt_irq_pending ();
   8011c:	e0bffb15 	stw	r2,-20(fp)

  do
  {
    i = 0;
   80120:	e03ffd15 	stw	zero,-12(fp)
    mask = 1;
   80124:	00800044 	movi	r2,1
   80128:	e0bffc15 	stw	r2,-16(fp)
     * called to clear the interrupt condition.
     */

    do
    {
      if (active & mask)
   8012c:	e0fffb17 	ldw	r3,-20(fp)
   80130:	e0bffc17 	ldw	r2,-16(fp)
   80134:	1884703a 	and	r2,r3,r2
   80138:	10001726 	beq	r2,zero,80198 <alt_irq_handler+0x9c>
      { 
#ifdef ALT_ENHANCED_INTERRUPT_API_PRESENT
        alt_irq[i].handler(alt_irq[i].context); 
   8013c:	00c00274 	movhi	r3,9
   80140:	18cd4604 	addi	r3,r3,13592
   80144:	e0bffd17 	ldw	r2,-12(fp)
   80148:	100490fa 	slli	r2,r2,3
   8014c:	1885883a 	add	r2,r3,r2
   80150:	10800017 	ldw	r2,0(r2)
   80154:	01000274 	movhi	r4,9
   80158:	210d4604 	addi	r4,r4,13592
   8015c:	e0fffd17 	ldw	r3,-12(fp)
   80160:	180690fa 	slli	r3,r3,3
   80164:	20c7883a 	add	r3,r4,r3
   80168:	18c00104 	addi	r3,r3,4
   8016c:	18c00017 	ldw	r3,0(r3)
   80170:	1809883a 	mov	r4,r3
   80174:	103ee83a 	callr	r2
#else
        alt_irq[i].handler(alt_irq[i].context, i); 
#endif
        break;
   80178:	0001883a 	nop
#ifndef NIOS2_EIC_PRESENT
static ALT_INLINE alt_u32 ALT_ALWAYS_INLINE alt_irq_pending (void)
{
  alt_u32 active;

  NIOS2_READ_IPENDING (active);
   8017c:	0005313a 	rdctl	r2,ipending
   80180:	e0bfff15 	stw	r2,-4(fp)

  return active;
   80184:	e0bfff17 	ldw	r2,-4(fp)
      mask <<= 1;
      i++;

    } while (1);

    active = alt_irq_pending ();
   80188:	e0bffb15 	stw	r2,-20(fp)
    
  } while (active);
   8018c:	e0bffb17 	ldw	r2,-20(fp)
   80190:	103fe31e 	bne	r2,zero,80120 <alt_irq_handler+0x24>
   80194:	00000706 	br	801b4 <alt_irq_handler+0xb8>
#else
        alt_irq[i].handler(alt_irq[i].context, i); 
#endif
        break;
      }
      mask <<= 1;
   80198:	e0bffc17 	ldw	r2,-16(fp)
   8019c:	1085883a 	add	r2,r2,r2
   801a0:	e0bffc15 	stw	r2,-16(fp)
      i++;
   801a4:	e0bffd17 	ldw	r2,-12(fp)
   801a8:	10800044 	addi	r2,r2,1
   801ac:	e0bffd15 	stw	r2,-12(fp)

    } while (1);
   801b0:	003fde06 	br	8012c <alt_irq_handler+0x30>

  /*
   * Notify the operating system that interrupt processing is complete.
   */ 

  ALT_OS_INT_EXIT();
   801b4:	0001883a 	nop
}
   801b8:	e037883a 	mov	sp,fp
   801bc:	dfc00117 	ldw	ra,4(sp)
   801c0:	df000017 	ldw	fp,0(sp)
   801c4:	dec00204 	addi	sp,sp,8
   801c8:	f800283a 	ret

000801cc <alt_instruction_exception_entry>:
 * that handler if it has been registered. Absent a handler, it will
 * break break or hang as discussed below.
 */
int 
alt_instruction_exception_entry (alt_u32 exception_pc)
{
   801cc:	defffb04 	addi	sp,sp,-20
   801d0:	dfc00415 	stw	ra,16(sp)
   801d4:	df000315 	stw	fp,12(sp)
   801d8:	df000304 	addi	fp,sp,12
   801dc:	e13fff15 	stw	r4,-4(fp)
  cause = ( (cause & NIOS2_EXCEPTION_REG_CAUSE_MASK) >>
              NIOS2_EXCEPTION_REG_CAUSE_OFST );

  NIOS2_READ_BADADDR(badaddr);
#else
  cause = NIOS2_EXCEPTION_CAUSE_NOT_PRESENT;
   801e0:	00bfffc4 	movi	r2,-1
   801e4:	e0bffd15 	stw	r2,-12(fp)
  badaddr = 0;
   801e8:	e03ffe15 	stw	zero,-8(fp)
#endif /* NIOS2_HAS_EXTRA_EXCEPTION_INFO */

  if(alt_instruction_exception_handler) {
   801ec:	d0a6d817 	ldw	r2,-25760(gp)
   801f0:	10000726 	beq	r2,zero,80210 <alt_instruction_exception_entry+0x44>
     * Call handler. Its return value indicates whether the exception-causing
     * instruction should be re-issued. The code that called us,
     * alt_eceptions_entry.S, will look at this value and adjust the ea
     * register as necessary
     */
    return alt_instruction_exception_handler(cause, exception_pc, badaddr);
   801f4:	d0a6d817 	ldw	r2,-25760(gp)
   801f8:	e0fffd17 	ldw	r3,-12(fp)
   801fc:	1809883a 	mov	r4,r3
   80200:	e17fff17 	ldw	r5,-4(fp)
   80204:	e1bffe17 	ldw	r6,-8(fp)
   80208:	103ee83a 	callr	r2
   8020c:	00000206 	br	80218 <alt_instruction_exception_entry+0x4c>
   *    (a peripheral which negates its interrupt output before its
   *    interrupt handler has been executed will cause spurious interrupts)
   */
  else {
#ifdef NIOS2_HAS_DEBUG_STUB
    NIOS2_BREAK();
   80210:	003da03a 	break	0
      ;
#endif /* NIOS2_HAS_DEBUG_STUB */
  }

  /* We should not get here. Remove compiler warning. */
  return NIOS2_EXCEPTION_RETURN_REISSUE_INST;
   80214:	0005883a 	mov	r2,zero
}
   80218:	e037883a 	mov	sp,fp
   8021c:	dfc00117 	ldw	ra,4(sp)
   80220:	df000017 	ldw	fp,0(sp)
   80224:	dec00204 	addi	sp,sp,8
   80228:	f800283a 	ret

Disassembly of section .text:

0008022c <_start>:

    /*
     * Now that the caches are initialized, set up the stack pointer and global pointer.
     * The values provided by the linker are assumed to be correctly aligned.
     */
    movhi sp, %hi(__alt_stack_pointer)
   8022c:	06c00334 	movhi	sp,12
    ori sp, sp, %lo(__alt_stack_pointer)
   80230:	dec00014 	ori	sp,sp,0
    movhi gp, %hi(_gp)
   80234:	06800274 	movhi	gp,9
    ori gp, gp, %lo(_gp)
   80238:	d6a66314 	ori	gp,gp,39308
 */
#ifndef ALT_SIM_OPTIMIZE
    /* Log that the BSS is about to be cleared. */
    ALT_LOG_PUTS(alt_log_msg_bss)

    movhi r2, %hi(__bss_start)
   8023c:	00800274 	movhi	r2,9
    ori r2, r2, %lo(__bss_start)
   80240:	108d2e14 	ori	r2,r2,13496

    movhi r3, %hi(__bss_end)
   80244:	00c00274 	movhi	r3,9
    ori r3, r3, %lo(__bss_end)
   80248:	18cd8614 	ori	r3,r3,13848

    beq r2, r3, 1f
   8024c:	10c00326 	beq	r2,r3,8025c <_start+0x30>

0:
    stw zero, (r2)
   80250:	10000015 	stw	zero,0(r2)
    addi r2, r2, 4
   80254:	10800104 	addi	r2,r2,4
    bltu r2, r3, 0b
   80258:	10fffd36 	bltu	r2,r3,80250 <_start+0x24>
     * section aren't defined until alt_load() has been called).
     */
    mov   et, zero
#endif

    call alt_load
   8025c:	008d5d00 	call	8d5d0 <alt_load>

    /* Log that alt_main is about to be called. */
    ALT_LOG_PUTS(alt_log_msg_alt_main)

    /* Call the C entry point. It should never return. */
    call alt_main
   80260:	008d7780 	call	8d778 <alt_main>

00080264 <alt_after_alt_main>:

    /* Wait in infinite loop in case alt_main does return. */
alt_after_alt_main:
    br alt_after_alt_main
   80264:	003fff06 	br	80264 <alt_after_alt_main>

00080268 <main>:
#include "system.h"
#include "altera_avalon_pio_regs.h"

#define BITSTREAM_SZ 76

int main(void) {
   80268:	defff904 	addi	sp,sp,-28
   8026c:	dfc00615 	stw	ra,24(sp)
   80270:	df000515 	stw	fp,20(sp)
   80274:	df000504 	addi	fp,sp,20
	char c;
	bool quit = false;
   80278:	e03ffb05 	stb	zero,-20(fp)
	unsigned int i, curDim = 0, memWord;
   8027c:	e03ffd15 	stw	zero,-12(fp)

	printf(">> Changing NovaCORE mode to CONFIG...\n");
   80280:	01000274 	movhi	r4,9
   80284:	213e9604 	addi	r4,r4,-1448
   80288:	00808140 	call	80814 <puts>
	IOWR_ALTERA_AVALON_PIO_DATA(PIO_C_BUS_BASE, 0x0);
   8028c:	0007883a 	mov	r3,zero
   80290:	00800474 	movhi	r2,17
   80294:	10841804 	addi	r2,r2,4192
   80298:	10c00035 	stwio	r3,0(r2)
	IOWR_ALTERA_AVALON_PIO_DATA(PIO_C_UID_BASE, 0x0);
   8029c:	0007883a 	mov	r3,zero
   802a0:	00800474 	movhi	r2,17
   802a4:	10840804 	addi	r2,r2,4128
   802a8:	10c00035 	stwio	r3,0(r2)
	IOWR_ALTERA_AVALON_PIO_DATA(PIO_C_CLK_BASE, 0x0);
   802ac:	0007883a 	mov	r3,zero
   802b0:	00800474 	movhi	r2,17
   802b4:	10840c04 	addi	r2,r2,4144
   802b8:	10c00035 	stwio	r3,0(r2)
	IOWR_ALTERA_AVALON_PIO_DATA(PIO_C_DIMENSION_BASE, curDim);
   802bc:	e0fffd17 	ldw	r3,-12(fp)
   802c0:	00800474 	movhi	r2,17
   802c4:	10841004 	addi	r2,r2,4160
   802c8:	10c00035 	stwio	r3,0(r2)
	IOWR_ALTERA_AVALON_PIO_DATA(PIO_C_DIMSWITCH_BASE, 0x0);
   802cc:	0007883a 	mov	r3,zero
   802d0:	00800474 	movhi	r2,17
   802d4:	10841404 	addi	r2,r2,4176
   802d8:	10c00035 	stwio	r3,0(r2)
	IOWR_ALTERA_AVALON_PIO_DATA(PIO_MODE_BASE, 0x1);
   802dc:	00c00044 	movi	r3,1
   802e0:	00800474 	movhi	r2,17
   802e4:	10841c04 	addi	r2,r2,4208
   802e8:	10c00035 	stwio	r3,0(r2)

	printf(">> Setting dimension to 0...\n");
   802ec:	01000274 	movhi	r4,9
   802f0:	213ea004 	addi	r4,r4,-1408
   802f4:	00808140 	call	80814 <puts>
	IOWR_ALTERA_AVALON_PIO_DATA(PIO_C_DIMENSION_BASE, 0x0);
   802f8:	0007883a 	mov	r3,zero
   802fc:	00800474 	movhi	r2,17
   80300:	10841004 	addi	r2,r2,4160
   80304:	10c00035 	stwio	r3,0(r2)
	IOWR_ALTERA_AVALON_PIO_DATA(PIO_C_DIMSWITCH_BASE, 0x1);
   80308:	00c00044 	movi	r3,1
   8030c:	00800474 	movhi	r2,17
   80310:	10841404 	addi	r2,r2,4176
   80314:	10c00035 	stwio	r3,0(r2)
	IOWR_ALTERA_AVALON_PIO_DATA(PIO_C_DIMSWITCH_BASE, 0x0);
   80318:	0007883a 	mov	r3,zero
   8031c:	00800474 	movhi	r2,17
   80320:	10841404 	addi	r2,r2,4176
   80324:	10c00035 	stwio	r3,0(r2)

	printf("Welcome to NovaCORE Blaster.\n");
   80328:	01000274 	movhi	r4,9
   8032c:	213ea804 	addi	r4,r4,-1376
   80330:	00808140 	call	80814 <puts>

	do {
		printf("Available options:\n");
   80334:	01000274 	movhi	r4,9
   80338:	213eb004 	addi	r4,r4,-1344
   8033c:	00808140 	call	80814 <puts>
		printf(" a) Load and run bitstream;\n");
   80340:	01000274 	movhi	r4,9
   80344:	213eb504 	addi	r4,r4,-1324
   80348:	00808140 	call	80814 <puts>
		printf(" b) Change dimension;\n");
   8034c:	01000274 	movhi	r4,9
   80350:	213ebc04 	addi	r4,r4,-1296
   80354:	00808140 	call	80814 <puts>
		printf(" q) Quit.\n");
   80358:	01000274 	movhi	r4,9
   8035c:	213ec204 	addi	r4,r4,-1272
   80360:	00808140 	call	80814 <puts>
		printf("Option: ");
   80364:	01000274 	movhi	r4,9
   80368:	213ec504 	addi	r4,r4,-1260
   8036c:	00807200 	call	80720 <printf>

		c = getchar();
   80370:	00800274 	movhi	r2,9
   80374:	10866404 	addi	r2,r2,6544
   80378:	10800017 	ldw	r2,0(r2)
   8037c:	10800117 	ldw	r2,4(r2)
   80380:	1009883a 	mov	r4,r2
   80384:	00806680 	call	80668 <getc>
   80388:	e0bffe05 	stb	r2,-8(fp)
		getchar();
   8038c:	00800274 	movhi	r2,9
   80390:	10866404 	addi	r2,r2,6544
   80394:	10800017 	ldw	r2,0(r2)
   80398:	10800117 	ldw	r2,4(r2)
   8039c:	1009883a 	mov	r4,r2
   803a0:	00806680 	call	80668 <getc>

		switch(c) {
   803a4:	e0bffe07 	ldb	r2,-8(fp)
   803a8:	10c018a0 	cmpeqi	r3,r2,98
   803ac:	1800491e 	bne	r3,zero,804d4 <main+0x26c>
   803b0:	10c01c60 	cmpeqi	r3,r2,113
   803b4:	1800781e 	bne	r3,zero,80598 <main+0x330>
   803b8:	10801860 	cmpeqi	r2,r2,97
   803bc:	10007926 	beq	r2,zero,805a4 <main+0x33c>
			case 'a':
				printf(">> Programming NovaCORE...\n");
   803c0:	01000274 	movhi	r4,9
   803c4:	213ec804 	addi	r4,r4,-1248
   803c8:	00808140 	call	80814 <puts>
				printf(">> Changing NovaCORE mode to CONFIG...\n");
   803cc:	01000274 	movhi	r4,9
   803d0:	213e9604 	addi	r4,r4,-1448
   803d4:	00808140 	call	80814 <puts>
				IOWR_ALTERA_AVALON_PIO_DATA(PIO_MODE_BASE, 0x1);
   803d8:	00c00044 	movi	r3,1
   803dc:	00800474 	movhi	r2,17
   803e0:	10841c04 	addi	r2,r2,4208
   803e4:	10c00035 	stwio	r3,0(r2)
				IOWR_ALTERA_AVALON_PIO_DATA(PIO_C_DIMSWITCH_BASE, 0x0);
   803e8:	0007883a 	mov	r3,zero
   803ec:	00800474 	movhi	r2,17
   803f0:	10841404 	addi	r2,r2,4176
   803f4:	10c00035 	stwio	r3,0(r2)
				IOWR_ALTERA_AVALON_PIO_DATA(PIO_C_CLK_BASE, 0x0);
   803f8:	0007883a 	mov	r3,zero
   803fc:	00800474 	movhi	r2,17
   80400:	10840c04 	addi	r2,r2,4144
   80404:	10c00035 	stwio	r3,0(r2)

				printf(">> Sending data...\n");
   80408:	01000274 	movhi	r4,9
   8040c:	213ecf04 	addi	r4,r4,-1220
   80410:	00808140 	call	80814 <puts>
				for(i = 0; i < BITSTREAM_SZ; i++) {
   80414:	e03ffc15 	stw	zero,-16(fp)
   80418:	00002006 	br	8049c <main+0x234>
					memWord = IORD(BITSTREAM_MEMORY_BASE, i);
   8041c:	e0bffc17 	ldw	r2,-16(fp)
   80420:	1085883a 	add	r2,r2,r2
   80424:	1085883a 	add	r2,r2,r2
   80428:	1007883a 	mov	r3,r2
   8042c:	00800434 	movhi	r2,16
   80430:	1885883a 	add	r2,r3,r2
   80434:	10800037 	ldwio	r2,0(r2)
   80438:	e0bfff15 	stw	r2,-4(fp)
					IOWR_ALTERA_AVALON_PIO_DATA(PIO_C_UID_BASE, (memWord >> 28) & 0xf);
   8043c:	e0bfff17 	ldw	r2,-4(fp)
   80440:	1004d73a 	srli	r2,r2,28
   80444:	1007883a 	mov	r3,r2
   80448:	00800474 	movhi	r2,17
   8044c:	10840804 	addi	r2,r2,4128
   80450:	10c00035 	stwio	r3,0(r2)
					IOWR_ALTERA_AVALON_PIO_DATA(PIO_C_BUS_BASE, memWord & 0xfffffff);
   80454:	e0ffff17 	ldw	r3,-4(fp)
   80458:	00840034 	movhi	r2,4096
   8045c:	10bfffc4 	addi	r2,r2,-1
   80460:	1886703a 	and	r3,r3,r2
   80464:	00800474 	movhi	r2,17
   80468:	10841804 	addi	r2,r2,4192
   8046c:	10c00035 	stwio	r3,0(r2)

					IOWR_ALTERA_AVALON_PIO_DATA(PIO_C_CLK_BASE, 0x1);
   80470:	00c00044 	movi	r3,1
   80474:	00800474 	movhi	r2,17
   80478:	10840c04 	addi	r2,r2,4144
   8047c:	10c00035 	stwio	r3,0(r2)
					IOWR_ALTERA_AVALON_PIO_DATA(PIO_C_CLK_BASE, 0x0);
   80480:	0007883a 	mov	r3,zero
   80484:	00800474 	movhi	r2,17
   80488:	10840c04 	addi	r2,r2,4144
   8048c:	10c00035 	stwio	r3,0(r2)
				IOWR_ALTERA_AVALON_PIO_DATA(PIO_MODE_BASE, 0x1);
				IOWR_ALTERA_AVALON_PIO_DATA(PIO_C_DIMSWITCH_BASE, 0x0);
				IOWR_ALTERA_AVALON_PIO_DATA(PIO_C_CLK_BASE, 0x0);

				printf(">> Sending data...\n");
				for(i = 0; i < BITSTREAM_SZ; i++) {
   80490:	e0bffc17 	ldw	r2,-16(fp)
   80494:	10800044 	addi	r2,r2,1
   80498:	e0bffc15 	stw	r2,-16(fp)
   8049c:	e0bffc17 	ldw	r2,-16(fp)
   804a0:	10801330 	cmpltui	r2,r2,76
   804a4:	103fdd1e 	bne	r2,zero,8041c <main+0x1b4>

					IOWR_ALTERA_AVALON_PIO_DATA(PIO_C_CLK_BASE, 0x1);
					IOWR_ALTERA_AVALON_PIO_DATA(PIO_C_CLK_BASE, 0x0);
				}

				printf(">> Changing NovaCORE mode to RUN...\n");
   804a8:	01000274 	movhi	r4,9
   804ac:	213ed404 	addi	r4,r4,-1200
   804b0:	00808140 	call	80814 <puts>
				IOWR_ALTERA_AVALON_PIO_DATA(PIO_MODE_BASE, 0x0);
   804b4:	0007883a 	mov	r3,zero
   804b8:	00800474 	movhi	r2,17
   804bc:	10841c04 	addi	r2,r2,4208
   804c0:	10c00035 	stwio	r3,0(r2)
				printf(">> Done!\n");
   804c4:	01000274 	movhi	r4,9
   804c8:	213edd04 	addi	r4,r4,-1164
   804cc:	00808140 	call	80814 <puts>
				break;
   804d0:	00003806 	br	805b4 <main+0x34c>
			case 'b':
				printf(">> Changing NovaCORE dimension from %d to %d...\n", curDim, (curDim + 1) % 4);
   804d4:	e0bffd17 	ldw	r2,-12(fp)
   804d8:	10800044 	addi	r2,r2,1
   804dc:	108000cc 	andi	r2,r2,3
   804e0:	01000274 	movhi	r4,9
   804e4:	213ee004 	addi	r4,r4,-1152
   804e8:	e17ffd17 	ldw	r5,-12(fp)
   804ec:	100d883a 	mov	r6,r2
   804f0:	00807200 	call	80720 <printf>
				printf(">> Changing NovaCORE mode to CONFIG...\n");
   804f4:	01000274 	movhi	r4,9
   804f8:	213e9604 	addi	r4,r4,-1448
   804fc:	00808140 	call	80814 <puts>
				IOWR_ALTERA_AVALON_PIO_DATA(PIO_MODE_BASE, 0x1);
   80500:	00c00044 	movi	r3,1
   80504:	00800474 	movhi	r2,17
   80508:	10841c04 	addi	r2,r2,4208
   8050c:	10c00035 	stwio	r3,0(r2)
				IOWR_ALTERA_AVALON_PIO_DATA(PIO_C_DIMSWITCH_BASE, 0x0);
   80510:	0007883a 	mov	r3,zero
   80514:	00800474 	movhi	r2,17
   80518:	10841404 	addi	r2,r2,4176
   8051c:	10c00035 	stwio	r3,0(r2)

				printf(">> Changing dimension...\n");
   80520:	01000274 	movhi	r4,9
   80524:	213eed04 	addi	r4,r4,-1100
   80528:	00808140 	call	80814 <puts>
				curDim = (curDim + 1) % 4;
   8052c:	e0bffd17 	ldw	r2,-12(fp)
   80530:	10800044 	addi	r2,r2,1
   80534:	108000cc 	andi	r2,r2,3
   80538:	e0bffd15 	stw	r2,-12(fp)
				IOWR_ALTERA_AVALON_PIO_DATA(PIO_C_DIMENSION_BASE, curDim);
   8053c:	e0fffd17 	ldw	r3,-12(fp)
   80540:	00800474 	movhi	r2,17
   80544:	10841004 	addi	r2,r2,4160
   80548:	10c00035 	stwio	r3,0(r2)
				IOWR_ALTERA_AVALON_PIO_DATA(PIO_C_DIMSWITCH_BASE, 0x1);
   8054c:	00c00044 	movi	r3,1
   80550:	00800474 	movhi	r2,17
   80554:	10841404 	addi	r2,r2,4176
   80558:	10c00035 	stwio	r3,0(r2)
				IOWR_ALTERA_AVALON_PIO_DATA(PIO_C_DIMSWITCH_BASE, 0x0);
   8055c:	0007883a 	mov	r3,zero
   80560:	00800474 	movhi	r2,17
   80564:	10841404 	addi	r2,r2,4176
   80568:	10c00035 	stwio	r3,0(r2)

				printf(">> Changing NovaCORE mode to RUN...\n");
   8056c:	01000274 	movhi	r4,9
   80570:	213ed404 	addi	r4,r4,-1200
   80574:	00808140 	call	80814 <puts>
				IOWR_ALTERA_AVALON_PIO_DATA(PIO_MODE_BASE, 0x0);
   80578:	0007883a 	mov	r3,zero
   8057c:	00800474 	movhi	r2,17
   80580:	10841c04 	addi	r2,r2,4208
   80584:	10c00035 	stwio	r3,0(r2)
				printf(">> Done!\n");
   80588:	01000274 	movhi	r4,9
   8058c:	213edd04 	addi	r4,r4,-1164
   80590:	00808140 	call	80814 <puts>
				break;
   80594:	00000706 	br	805b4 <main+0x34c>
			case 'q':
				quit = true;
   80598:	00800044 	movi	r2,1
   8059c:	e0bffb05 	stb	r2,-20(fp)
				break;
   805a0:	00000406 	br	805b4 <main+0x34c>
			default:
				printf("Invalid option.\n");
   805a4:	01000274 	movhi	r4,9
   805a8:	213ef404 	addi	r4,r4,-1072
   805ac:	00808140 	call	80814 <puts>
				break;
   805b0:	0001883a 	nop
		}
	} while(!quit);
   805b4:	e0bffb03 	ldbu	r2,-20(fp)
   805b8:	1080005c 	xori	r2,r2,1
   805bc:	10803fcc 	andi	r2,r2,255
   805c0:	103f5c1e 	bne	r2,zero,80334 <main+0xcc>

	printf("Bye!\n");
   805c4:	01000274 	movhi	r4,9
   805c8:	213ef804 	addi	r4,r4,-1056
   805cc:	00808140 	call	80814 <puts>

	return 0;
   805d0:	0005883a 	mov	r2,zero
}
   805d4:	e037883a 	mov	sp,fp
   805d8:	dfc00117 	ldw	ra,4(sp)
   805dc:	df000017 	ldw	fp,0(sp)
   805e0:	dec00204 	addi	sp,sp,8
   805e4:	f800283a 	ret

000805e8 <_getc_r>:
   805e8:	defffd04 	addi	sp,sp,-12
   805ec:	dc400115 	stw	r17,4(sp)
   805f0:	dc000015 	stw	r16,0(sp)
   805f4:	dfc00215 	stw	ra,8(sp)
   805f8:	2023883a 	mov	r17,r4
   805fc:	2821883a 	mov	r16,r5
   80600:	20000226 	beq	r4,zero,8060c <_getc_r+0x24>
   80604:	20800e17 	ldw	r2,56(r4)
   80608:	10001026 	beq	r2,zero,8064c <_getc_r+0x64>
   8060c:	0084a280 	call	84a28 <__sfp_lock_acquire>
   80610:	80800117 	ldw	r2,4(r16)
   80614:	10bfffc4 	addi	r2,r2,-1
   80618:	80800115 	stw	r2,4(r16)
   8061c:	10000d16 	blt	r2,zero,80654 <_getc_r+0x6c>
   80620:	80800017 	ldw	r2,0(r16)
   80624:	10c00044 	addi	r3,r2,1
   80628:	80c00015 	stw	r3,0(r16)
   8062c:	14000003 	ldbu	r16,0(r2)
   80630:	0084a2c0 	call	84a2c <__sfp_lock_release>
   80634:	8005883a 	mov	r2,r16
   80638:	dfc00217 	ldw	ra,8(sp)
   8063c:	dc400117 	ldw	r17,4(sp)
   80640:	dc000017 	ldw	r16,0(sp)
   80644:	dec00304 	addi	sp,sp,12
   80648:	f800283a 	ret
   8064c:	00847700 	call	84770 <__sinit>
   80650:	003fee06 	br	8060c <_getc_r+0x24>
   80654:	800b883a 	mov	r5,r16
   80658:	8809883a 	mov	r4,r17
   8065c:	00808280 	call	80828 <__srget_r>
   80660:	1021883a 	mov	r16,r2
   80664:	003ff206 	br	80630 <_getc_r+0x48>

00080668 <getc>:
   80668:	defffd04 	addi	sp,sp,-12
   8066c:	dc400115 	stw	r17,4(sp)
   80670:	04400274 	movhi	r17,9
   80674:	8c466404 	addi	r17,r17,6544
   80678:	88800017 	ldw	r2,0(r17)
   8067c:	dc000015 	stw	r16,0(sp)
   80680:	dfc00215 	stw	ra,8(sp)
   80684:	2021883a 	mov	r16,r4
   80688:	10000226 	beq	r2,zero,80694 <getc+0x2c>
   8068c:	10c00e17 	ldw	r3,56(r2)
   80690:	18001026 	beq	r3,zero,806d4 <getc+0x6c>
   80694:	0084a280 	call	84a28 <__sfp_lock_acquire>
   80698:	80800117 	ldw	r2,4(r16)
   8069c:	10bfffc4 	addi	r2,r2,-1
   806a0:	80800115 	stw	r2,4(r16)
   806a4:	10000e16 	blt	r2,zero,806e0 <getc+0x78>
   806a8:	80800017 	ldw	r2,0(r16)
   806ac:	10c00044 	addi	r3,r2,1
   806b0:	80c00015 	stw	r3,0(r16)
   806b4:	14000003 	ldbu	r16,0(r2)
   806b8:	0084a2c0 	call	84a2c <__sfp_lock_release>
   806bc:	8005883a 	mov	r2,r16
   806c0:	dfc00217 	ldw	ra,8(sp)
   806c4:	dc400117 	ldw	r17,4(sp)
   806c8:	dc000017 	ldw	r16,0(sp)
   806cc:	dec00304 	addi	sp,sp,12
   806d0:	f800283a 	ret
   806d4:	1009883a 	mov	r4,r2
   806d8:	00847700 	call	84770 <__sinit>
   806dc:	003fed06 	br	80694 <getc+0x2c>
   806e0:	89000017 	ldw	r4,0(r17)
   806e4:	800b883a 	mov	r5,r16
   806e8:	00808280 	call	80828 <__srget_r>
   806ec:	1021883a 	mov	r16,r2
   806f0:	003ff106 	br	806b8 <getc+0x50>

000806f4 <_printf_r>:
   806f4:	defffd04 	addi	sp,sp,-12
   806f8:	dfc00015 	stw	ra,0(sp)
   806fc:	d9800115 	stw	r6,4(sp)
   80700:	d9c00215 	stw	r7,8(sp)
   80704:	280d883a 	mov	r6,r5
   80708:	21400217 	ldw	r5,8(r4)
   8070c:	d9c00104 	addi	r7,sp,4
   80710:	008093c0 	call	8093c <___vfprintf_internal_r>
   80714:	dfc00017 	ldw	ra,0(sp)
   80718:	dec00304 	addi	sp,sp,12
   8071c:	f800283a 	ret

00080720 <printf>:
   80720:	defffc04 	addi	sp,sp,-16
   80724:	dfc00015 	stw	ra,0(sp)
   80728:	d9400115 	stw	r5,4(sp)
   8072c:	d9800215 	stw	r6,8(sp)
   80730:	d9c00315 	stw	r7,12(sp)
   80734:	00800274 	movhi	r2,9
   80738:	10866404 	addi	r2,r2,6544
   8073c:	10800017 	ldw	r2,0(r2)
   80740:	200b883a 	mov	r5,r4
   80744:	d9800104 	addi	r6,sp,4
   80748:	11000217 	ldw	r4,8(r2)
   8074c:	0082a900 	call	82a90 <__vfprintf_internal>
   80750:	dfc00017 	ldw	ra,0(sp)
   80754:	dec00404 	addi	sp,sp,16
   80758:	f800283a 	ret

0008075c <_puts_r>:
   8075c:	defff604 	addi	sp,sp,-40
   80760:	dc400815 	stw	r17,32(sp)
   80764:	2023883a 	mov	r17,r4
   80768:	2809883a 	mov	r4,r5
   8076c:	dc000715 	stw	r16,28(sp)
   80770:	dfc00915 	stw	ra,36(sp)
   80774:	2821883a 	mov	r16,r5
   80778:	00808b00 	call	808b0 <strlen>
   8077c:	00c00274 	movhi	r3,9
   80780:	18c66404 	addi	r3,r3,6544
   80784:	18c00017 	ldw	r3,0(r3)
   80788:	11000044 	addi	r4,r2,1
   8078c:	d8800115 	stw	r2,4(sp)
   80790:	18c00217 	ldw	r3,8(r3)
   80794:	00800274 	movhi	r2,9
   80798:	10befb04 	addi	r2,r2,-1044
   8079c:	d8800215 	stw	r2,8(sp)
   807a0:	1940030b 	ldhu	r5,12(r3)
   807a4:	00800044 	movi	r2,1
   807a8:	d8800315 	stw	r2,12(sp)
   807ac:	00800084 	movi	r2,2
   807b0:	d8800515 	stw	r2,20(sp)
   807b4:	dc000015 	stw	r16,0(sp)
   807b8:	d9000615 	stw	r4,24(sp)
   807bc:	dec00415 	stw	sp,16(sp)
   807c0:	2888000c 	andi	r2,r5,8192
   807c4:	1000061e 	bne	r2,zero,807e0 <_puts_r+0x84>
   807c8:	19001917 	ldw	r4,100(r3)
   807cc:	00b7ffc4 	movi	r2,-8193
   807d0:	29480014 	ori	r5,r5,8192
   807d4:	2084703a 	and	r2,r4,r2
   807d8:	1940030d 	sth	r5,12(r3)
   807dc:	18801915 	stw	r2,100(r3)
   807e0:	89400217 	ldw	r5,8(r17)
   807e4:	8809883a 	mov	r4,r17
   807e8:	d9800404 	addi	r6,sp,16
   807ec:	0084e740 	call	84e74 <__sfvwrite_r>
   807f0:	1000061e 	bne	r2,zero,8080c <_puts_r+0xb0>
   807f4:	00800284 	movi	r2,10
   807f8:	dfc00917 	ldw	ra,36(sp)
   807fc:	dc400817 	ldw	r17,32(sp)
   80800:	dc000717 	ldw	r16,28(sp)
   80804:	dec00a04 	addi	sp,sp,40
   80808:	f800283a 	ret
   8080c:	00bfffc4 	movi	r2,-1
   80810:	003ff906 	br	807f8 <_puts_r+0x9c>

00080814 <puts>:
   80814:	00800274 	movhi	r2,9
   80818:	10866404 	addi	r2,r2,6544
   8081c:	200b883a 	mov	r5,r4
   80820:	11000017 	ldw	r4,0(r2)
   80824:	008075c1 	jmpi	8075c <_puts_r>

00080828 <__srget_r>:
   80828:	defffd04 	addi	sp,sp,-12
   8082c:	dc400115 	stw	r17,4(sp)
   80830:	dc000015 	stw	r16,0(sp)
   80834:	dfc00215 	stw	ra,8(sp)
   80838:	2023883a 	mov	r17,r4
   8083c:	2821883a 	mov	r16,r5
   80840:	20000226 	beq	r4,zero,8084c <__srget_r+0x24>
   80844:	20800e17 	ldw	r2,56(r4)
   80848:	10001026 	beq	r2,zero,8088c <__srget_r+0x64>
   8084c:	8809883a 	mov	r4,r17
   80850:	800b883a 	mov	r5,r16
   80854:	00878b80 	call	878b8 <__srefill_r>
   80858:	10000e1e 	bne	r2,zero,80894 <__srget_r+0x6c>
   8085c:	80800017 	ldw	r2,0(r16)
   80860:	81000117 	ldw	r4,4(r16)
   80864:	10c00044 	addi	r3,r2,1
   80868:	213fffc4 	addi	r4,r4,-1
   8086c:	81000115 	stw	r4,4(r16)
   80870:	80c00015 	stw	r3,0(r16)
   80874:	10800003 	ldbu	r2,0(r2)
   80878:	dfc00217 	ldw	ra,8(sp)
   8087c:	dc400117 	ldw	r17,4(sp)
   80880:	dc000017 	ldw	r16,0(sp)
   80884:	dec00304 	addi	sp,sp,12
   80888:	f800283a 	ret
   8088c:	00847700 	call	84770 <__sinit>
   80890:	003fee06 	br	8084c <__srget_r+0x24>
   80894:	00bfffc4 	movi	r2,-1
   80898:	003ff706 	br	80878 <__srget_r+0x50>

0008089c <__srget>:
   8089c:	00800274 	movhi	r2,9
   808a0:	10866404 	addi	r2,r2,6544
   808a4:	200b883a 	mov	r5,r4
   808a8:	11000017 	ldw	r4,0(r2)
   808ac:	00808281 	jmpi	80828 <__srget_r>

000808b0 <strlen>:
   808b0:	208000cc 	andi	r2,r4,3
   808b4:	10001d26 	beq	r2,zero,8092c <strlen+0x7c>
   808b8:	20800007 	ldb	r2,0(r4)
   808bc:	10001d26 	beq	r2,zero,80934 <strlen+0x84>
   808c0:	2005883a 	mov	r2,r4
   808c4:	00000206 	br	808d0 <strlen+0x20>
   808c8:	10c00007 	ldb	r3,0(r2)
   808cc:	18001526 	beq	r3,zero,80924 <strlen+0x74>
   808d0:	10800044 	addi	r2,r2,1
   808d4:	10c000cc 	andi	r3,r2,3
   808d8:	183ffb1e 	bne	r3,zero,808c8 <strlen+0x18>
   808dc:	10c00017 	ldw	r3,0(r2)
   808e0:	01ffbff4 	movhi	r7,65279
   808e4:	39ffbfc4 	addi	r7,r7,-257
   808e8:	01a02074 	movhi	r6,32897
   808ec:	31a02004 	addi	r6,r6,-32640
   808f0:	00000206 	br	808fc <strlen+0x4c>
   808f4:	10800104 	addi	r2,r2,4
   808f8:	10c00017 	ldw	r3,0(r2)
   808fc:	19cb883a 	add	r5,r3,r7
   80900:	00c6303a 	nor	r3,zero,r3
   80904:	28c6703a 	and	r3,r5,r3
   80908:	1986703a 	and	r3,r3,r6
   8090c:	183ff926 	beq	r3,zero,808f4 <strlen+0x44>
   80910:	10c00007 	ldb	r3,0(r2)
   80914:	18000326 	beq	r3,zero,80924 <strlen+0x74>
   80918:	10800044 	addi	r2,r2,1
   8091c:	10c00007 	ldb	r3,0(r2)
   80920:	183ffd1e 	bne	r3,zero,80918 <strlen+0x68>
   80924:	1105c83a 	sub	r2,r2,r4
   80928:	f800283a 	ret
   8092c:	2005883a 	mov	r2,r4
   80930:	003fea06 	br	808dc <strlen+0x2c>
   80934:	0005883a 	mov	r2,zero
   80938:	f800283a 	ret

0008093c <___vfprintf_internal_r>:
   8093c:	defeb604 	addi	sp,sp,-1320
   80940:	dfc14915 	stw	ra,1316(sp)
   80944:	dcc14315 	stw	r19,1292(sp)
   80948:	dc414115 	stw	r17,1284(sp)
   8094c:	d9012c15 	stw	r4,1200(sp)
   80950:	2827883a 	mov	r19,r5
   80954:	3023883a 	mov	r17,r6
   80958:	d9c12f15 	stw	r7,1212(sp)
   8095c:	df014815 	stw	fp,1312(sp)
   80960:	ddc14715 	stw	r23,1308(sp)
   80964:	dd814615 	stw	r22,1304(sp)
   80968:	dd414515 	stw	r21,1300(sp)
   8096c:	dd014415 	stw	r20,1296(sp)
   80970:	dc814215 	stw	r18,1288(sp)
   80974:	dc014015 	stw	r16,1280(sp)
   80978:	00855200 	call	85520 <_localeconv_r>
   8097c:	10800017 	ldw	r2,0(r2)
   80980:	1009883a 	mov	r4,r2
   80984:	d8813415 	stw	r2,1232(sp)
   80988:	00808b00 	call	808b0 <strlen>
   8098c:	d8813815 	stw	r2,1248(sp)
   80990:	d8812c17 	ldw	r2,1200(sp)
   80994:	10000226 	beq	r2,zero,809a0 <___vfprintf_internal_r+0x64>
   80998:	10800e17 	ldw	r2,56(r2)
   8099c:	10010826 	beq	r2,zero,80dc0 <___vfprintf_internal_r+0x484>
   809a0:	9880030b 	ldhu	r2,12(r19)
   809a4:	1108000c 	andi	r4,r2,8192
   809a8:	1007883a 	mov	r3,r2
   809ac:	2000071e 	bne	r4,zero,809cc <___vfprintf_internal_r+0x90>
   809b0:	99001917 	ldw	r4,100(r19)
   809b4:	10c80014 	ori	r3,r2,8192
   809b8:	00b7ffc4 	movi	r2,-8193
   809bc:	2088703a 	and	r4,r4,r2
   809c0:	98c0030d 	sth	r3,12(r19)
   809c4:	1805883a 	mov	r2,r3
   809c8:	99001915 	stw	r4,100(r19)
   809cc:	1900020c 	andi	r4,r3,8
   809d0:	2000ab26 	beq	r4,zero,80c80 <___vfprintf_internal_r+0x344>
   809d4:	99000417 	ldw	r4,16(r19)
   809d8:	2000a926 	beq	r4,zero,80c80 <___vfprintf_internal_r+0x344>
   809dc:	18c0068c 	andi	r3,r3,26
   809e0:	01000284 	movi	r4,10
   809e4:	1900af26 	beq	r3,r4,80ca4 <___vfprintf_internal_r+0x368>
   809e8:	d9010dc4 	addi	r4,sp,1079
   809ec:	d9410e04 	addi	r5,sp,1080
   809f0:	d8800404 	addi	r2,sp,16
   809f4:	2907c83a 	sub	r3,r5,r4
   809f8:	d9012815 	stw	r4,1184(sp)
   809fc:	d9412915 	stw	r5,1188(sp)
   80a00:	d8811e15 	stw	r2,1144(sp)
   80a04:	d8012015 	stw	zero,1152(sp)
   80a08:	d8011f15 	stw	zero,1148(sp)
   80a0c:	d8013515 	stw	zero,1236(sp)
   80a10:	d8013715 	stw	zero,1244(sp)
   80a14:	d8013915 	stw	zero,1252(sp)
   80a18:	d8013b15 	stw	zero,1260(sp)
   80a1c:	d8013a15 	stw	zero,1256(sp)
   80a20:	d8013115 	stw	zero,1220(sp)
   80a24:	1011883a 	mov	r8,r2
   80a28:	05c00274 	movhi	r23,9
   80a2c:	bdff0c84 	addi	r23,r23,-974
   80a30:	d8c13d15 	stw	r3,1268(sp)
   80a34:	88800007 	ldb	r2,0(r17)
   80a38:	10021126 	beq	r2,zero,81280 <___vfprintf_internal_r+0x944>
   80a3c:	00c00944 	movi	r3,37
   80a40:	8821883a 	mov	r16,r17
   80a44:	10c0021e 	bne	r2,r3,80a50 <___vfprintf_internal_r+0x114>
   80a48:	00001406 	br	80a9c <___vfprintf_internal_r+0x160>
   80a4c:	10c00326 	beq	r2,r3,80a5c <___vfprintf_internal_r+0x120>
   80a50:	84000044 	addi	r16,r16,1
   80a54:	80800007 	ldb	r2,0(r16)
   80a58:	103ffc1e 	bne	r2,zero,80a4c <___vfprintf_internal_r+0x110>
   80a5c:	8465c83a 	sub	r18,r16,r17
   80a60:	90000e26 	beq	r18,zero,80a9c <___vfprintf_internal_r+0x160>
   80a64:	d8c12017 	ldw	r3,1152(sp)
   80a68:	d8811f17 	ldw	r2,1148(sp)
   80a6c:	44400015 	stw	r17,0(r8)
   80a70:	1c87883a 	add	r3,r3,r18
   80a74:	10800044 	addi	r2,r2,1
   80a78:	d8c12015 	stw	r3,1152(sp)
   80a7c:	44800115 	stw	r18,4(r8)
   80a80:	d8811f15 	stw	r2,1148(sp)
   80a84:	00c001c4 	movi	r3,7
   80a88:	1880bb16 	blt	r3,r2,80d78 <___vfprintf_internal_r+0x43c>
   80a8c:	42000204 	addi	r8,r8,8
   80a90:	d9013117 	ldw	r4,1220(sp)
   80a94:	2489883a 	add	r4,r4,r18
   80a98:	d9013115 	stw	r4,1220(sp)
   80a9c:	80800007 	ldb	r2,0(r16)
   80aa0:	1000bc26 	beq	r2,zero,80d94 <___vfprintf_internal_r+0x458>
   80aa4:	053fffc4 	movi	r20,-1
   80aa8:	84400044 	addi	r17,r16,1
   80aac:	84800047 	ldb	r18,1(r16)
   80ab0:	d8012785 	stb	zero,1182(sp)
   80ab4:	002d883a 	mov	r22,zero
   80ab8:	d8013015 	stw	zero,1216(sp)
   80abc:	d8012a15 	stw	zero,1192(sp)
   80ac0:	04001604 	movi	r16,88
   80ac4:	05400244 	movi	r21,9
   80ac8:	4039883a 	mov	fp,r8
   80acc:	a007883a 	mov	r3,r20
   80ad0:	8c400044 	addi	r17,r17,1
   80ad4:	90bff804 	addi	r2,r18,-32
   80ad8:	80832036 	bltu	r16,r2,8175c <___vfprintf_internal_r+0xe20>
   80adc:	1085883a 	add	r2,r2,r2
   80ae0:	1085883a 	add	r2,r2,r2
   80ae4:	01400234 	movhi	r5,8
   80ae8:	2942be04 	addi	r5,r5,2808
   80aec:	1145883a 	add	r2,r2,r5
   80af0:	10800017 	ldw	r2,0(r2)
   80af4:	1000683a 	jmp	r2
   80af8:	000814fc 	xorhi	zero,zero,8275
   80afc:	0008175c 	xori	zero,zero,8285
   80b00:	0008175c 	xori	zero,zero,8285
   80b04:	00081518 	cmpnei	zero,zero,8276
   80b08:	0008175c 	xori	zero,zero,8285
   80b0c:	0008175c 	xori	zero,zero,8285
   80b10:	0008175c 	xori	zero,zero,8285
   80b14:	0008175c 	xori	zero,zero,8285
   80b18:	0008175c 	xori	zero,zero,8285
   80b1c:	0008175c 	xori	zero,zero,8285
   80b20:	0008152c 	andhi	zero,zero,8276
   80b24:	00080dcc 	andi	zero,zero,8247
   80b28:	0008175c 	xori	zero,zero,8285
   80b2c:	00080c6c 	andhi	zero,zero,8241
   80b30:	00080dd8 	cmpnei	zero,zero,8247
   80b34:	0008175c 	xori	zero,zero,8285
   80b38:	00080e28 	cmpgeui	zero,zero,8248
   80b3c:	00081338 	rdprs	zero,zero,8268
   80b40:	00081338 	rdprs	zero,zero,8268
   80b44:	00081338 	rdprs	zero,zero,8268
   80b48:	00081338 	rdprs	zero,zero,8268
   80b4c:	00081338 	rdprs	zero,zero,8268
   80b50:	00081338 	rdprs	zero,zero,8268
   80b54:	00081338 	rdprs	zero,zero,8268
   80b58:	00081338 	rdprs	zero,zero,8268
   80b5c:	00081338 	rdprs	zero,zero,8268
   80b60:	0008175c 	xori	zero,zero,8285
   80b64:	0008175c 	xori	zero,zero,8285
   80b68:	0008175c 	xori	zero,zero,8285
   80b6c:	0008175c 	xori	zero,zero,8285
   80b70:	0008175c 	xori	zero,zero,8285
   80b74:	0008175c 	xori	zero,zero,8285
   80b78:	0008175c 	xori	zero,zero,8285
   80b7c:	0008175c 	xori	zero,zero,8285
   80b80:	0008175c 	xori	zero,zero,8285
   80b84:	0008175c 	xori	zero,zero,8285
   80b88:	00080e3c 	xorhi	zero,zero,8248
   80b8c:	00081288 	cmpgei	zero,zero,8266
   80b90:	0008175c 	xori	zero,zero,8285
   80b94:	00081288 	cmpgei	zero,zero,8266
   80b98:	0008175c 	xori	zero,zero,8285
   80b9c:	0008175c 	xori	zero,zero,8285
   80ba0:	0008175c 	xori	zero,zero,8285
   80ba4:	0008175c 	xori	zero,zero,8285
   80ba8:	00081380 	call	8138 <__alt_mem_onchip_memory2-0x77ec8>
   80bac:	0008175c 	xori	zero,zero,8285
   80bb0:	0008175c 	xori	zero,zero,8285
   80bb4:	00081394 	movui	zero,8270
   80bb8:	0008175c 	xori	zero,zero,8285
   80bbc:	0008175c 	xori	zero,zero,8285
   80bc0:	0008175c 	xori	zero,zero,8285
   80bc4:	0008175c 	xori	zero,zero,8285
   80bc8:	0008175c 	xori	zero,zero,8285
   80bcc:	000813dc 	xori	zero,zero,8271
   80bd0:	0008175c 	xori	zero,zero,8285
   80bd4:	0008175c 	xori	zero,zero,8285
   80bd8:	00081550 	cmplti	zero,zero,8277
   80bdc:	0008175c 	xori	zero,zero,8285
   80be0:	0008175c 	xori	zero,zero,8285
   80be4:	0008175c 	xori	zero,zero,8285
   80be8:	0008175c 	xori	zero,zero,8285
   80bec:	0008175c 	xori	zero,zero,8285
   80bf0:	0008175c 	xori	zero,zero,8285
   80bf4:	0008175c 	xori	zero,zero,8285
   80bf8:	0008175c 	xori	zero,zero,8285
   80bfc:	0008175c 	xori	zero,zero,8285
   80c00:	0008175c 	xori	zero,zero,8285
   80c04:	00081454 	movui	zero,8273
   80c08:	000815cc 	andi	zero,zero,8279
   80c0c:	00081288 	cmpgei	zero,zero,8266
   80c10:	00081288 	cmpgei	zero,zero,8266
   80c14:	00081288 	cmpgei	zero,zero,8266
   80c18:	00081598 	cmpnei	zero,zero,8278
   80c1c:	000815cc 	andi	zero,zero,8279
   80c20:	0008175c 	xori	zero,zero,8285
   80c24:	0008175c 	xori	zero,zero,8285
   80c28:	000815ac 	andhi	zero,zero,8278
   80c2c:	0008175c 	xori	zero,zero,8285
   80c30:	0008141c 	xori	zero,zero,8272
   80c34:	000816dc 	xori	zero,zero,8283
   80c38:	00081688 	cmpgei	zero,zero,8282
   80c3c:	0008160c 	andi	zero,zero,8280
   80c40:	0008175c 	xori	zero,zero,8285
   80c44:	00081620 	cmpeqi	zero,zero,8280
   80c48:	0008175c 	xori	zero,zero,8285
   80c4c:	0008171c 	xori	zero,zero,8284
   80c50:	0008175c 	xori	zero,zero,8285
   80c54:	0008175c 	xori	zero,zero,8285
   80c58:	00081494 	movui	zero,8274
   80c5c:	d9413017 	ldw	r5,1216(sp)
   80c60:	d8812f15 	stw	r2,1212(sp)
   80c64:	014bc83a 	sub	r5,zero,r5
   80c68:	d9413015 	stw	r5,1216(sp)
   80c6c:	d8812a17 	ldw	r2,1192(sp)
   80c70:	10800114 	ori	r2,r2,4
   80c74:	d8812a15 	stw	r2,1192(sp)
   80c78:	8c800007 	ldb	r18,0(r17)
   80c7c:	003f9406 	br	80ad0 <___vfprintf_internal_r+0x194>
   80c80:	d9012c17 	ldw	r4,1200(sp)
   80c84:	980b883a 	mov	r5,r19
   80c88:	0082ab40 	call	82ab4 <__swsetup_r>
   80c8c:	10002d1e 	bne	r2,zero,80d44 <___vfprintf_internal_r+0x408>
   80c90:	9880030b 	ldhu	r2,12(r19)
   80c94:	01000284 	movi	r4,10
   80c98:	1007883a 	mov	r3,r2
   80c9c:	18c0068c 	andi	r3,r3,26
   80ca0:	193f511e 	bne	r3,r4,809e8 <___vfprintf_internal_r+0xac>
   80ca4:	98c0038b 	ldhu	r3,14(r19)
   80ca8:	193fffcc 	andi	r4,r3,65535
   80cac:	2120001c 	xori	r4,r4,32768
   80cb0:	21200004 	addi	r4,r4,-32768
   80cb4:	203f4c16 	blt	r4,zero,809e8 <___vfprintf_internal_r+0xac>
   80cb8:	9ac01917 	ldw	r11,100(r19)
   80cbc:	9a800717 	ldw	r10,28(r19)
   80cc0:	9a400917 	ldw	r9,36(r19)
   80cc4:	d9012c17 	ldw	r4,1200(sp)
   80cc8:	d9c12f17 	ldw	r7,1212(sp)
   80ccc:	02010004 	movi	r8,1024
   80cd0:	10bfff4c 	andi	r2,r2,65533
   80cd4:	d8c1078d 	sth	r3,1054(sp)
   80cd8:	d9410404 	addi	r5,sp,1040
   80cdc:	d8c00404 	addi	r3,sp,16
   80ce0:	880d883a 	mov	r6,r17
   80ce4:	d881070d 	sth	r2,1052(sp)
   80ce8:	dac11d15 	stw	r11,1140(sp)
   80cec:	da810b15 	stw	r10,1068(sp)
   80cf0:	da410d15 	stw	r9,1076(sp)
   80cf4:	d8c10415 	stw	r3,1040(sp)
   80cf8:	d8c10815 	stw	r3,1056(sp)
   80cfc:	da010615 	stw	r8,1048(sp)
   80d00:	da010915 	stw	r8,1060(sp)
   80d04:	d8010a15 	stw	zero,1064(sp)
   80d08:	008093c0 	call	8093c <___vfprintf_internal_r>
   80d0c:	1021883a 	mov	r16,r2
   80d10:	10000416 	blt	r2,zero,80d24 <___vfprintf_internal_r+0x3e8>
   80d14:	d9012c17 	ldw	r4,1200(sp)
   80d18:	d9410404 	addi	r5,sp,1040
   80d1c:	00844500 	call	84450 <_fflush_r>
   80d20:	10072a1e 	bne	r2,zero,829cc <___vfprintf_internal_r+0x2090>
   80d24:	d881070b 	ldhu	r2,1052(sp)
   80d28:	1080100c 	andi	r2,r2,64
   80d2c:	10000326 	beq	r2,zero,80d3c <___vfprintf_internal_r+0x400>
   80d30:	9880030b 	ldhu	r2,12(r19)
   80d34:	10801014 	ori	r2,r2,64
   80d38:	9880030d 	sth	r2,12(r19)
   80d3c:	8005883a 	mov	r2,r16
   80d40:	00000106 	br	80d48 <___vfprintf_internal_r+0x40c>
   80d44:	00bfffc4 	movi	r2,-1
   80d48:	dfc14917 	ldw	ra,1316(sp)
   80d4c:	df014817 	ldw	fp,1312(sp)
   80d50:	ddc14717 	ldw	r23,1308(sp)
   80d54:	dd814617 	ldw	r22,1304(sp)
   80d58:	dd414517 	ldw	r21,1300(sp)
   80d5c:	dd014417 	ldw	r20,1296(sp)
   80d60:	dcc14317 	ldw	r19,1292(sp)
   80d64:	dc814217 	ldw	r18,1288(sp)
   80d68:	dc414117 	ldw	r17,1284(sp)
   80d6c:	dc014017 	ldw	r16,1280(sp)
   80d70:	dec14a04 	addi	sp,sp,1320
   80d74:	f800283a 	ret
   80d78:	d9012c17 	ldw	r4,1200(sp)
   80d7c:	980b883a 	mov	r5,r19
   80d80:	d9811e04 	addi	r6,sp,1144
   80d84:	0087e380 	call	87e38 <__sprint_r>
   80d88:	1000081e 	bne	r2,zero,80dac <___vfprintf_internal_r+0x470>
   80d8c:	da000404 	addi	r8,sp,16
   80d90:	003f3f06 	br	80a90 <___vfprintf_internal_r+0x154>
   80d94:	d8812017 	ldw	r2,1152(sp)
   80d98:	10000426 	beq	r2,zero,80dac <___vfprintf_internal_r+0x470>
   80d9c:	d9012c17 	ldw	r4,1200(sp)
   80da0:	980b883a 	mov	r5,r19
   80da4:	d9811e04 	addi	r6,sp,1144
   80da8:	0087e380 	call	87e38 <__sprint_r>
   80dac:	9880030b 	ldhu	r2,12(r19)
   80db0:	1080100c 	andi	r2,r2,64
   80db4:	103fe31e 	bne	r2,zero,80d44 <___vfprintf_internal_r+0x408>
   80db8:	d8813117 	ldw	r2,1220(sp)
   80dbc:	003fe206 	br	80d48 <___vfprintf_internal_r+0x40c>
   80dc0:	d9012c17 	ldw	r4,1200(sp)
   80dc4:	00847700 	call	84770 <__sinit>
   80dc8:	003ef506 	br	809a0 <___vfprintf_internal_r+0x64>
   80dcc:	05800ac4 	movi	r22,43
   80dd0:	8c800007 	ldb	r18,0(r17)
   80dd4:	003f3e06 	br	80ad0 <___vfprintf_internal_r+0x194>
   80dd8:	8c800007 	ldb	r18,0(r17)
   80ddc:	00c00a84 	movi	r3,42
   80de0:	88800044 	addi	r2,r17,1
   80de4:	90c6fb26 	beq	r18,r3,829d4 <___vfprintf_internal_r+0x2098>
   80de8:	953ff404 	addi	r20,r18,-48
   80dec:	1023883a 	mov	r17,r2
   80df0:	0007883a 	mov	r3,zero
   80df4:	ad3f3736 	bltu	r21,r20,80ad4 <___vfprintf_internal_r+0x198>
   80df8:	0009883a 	mov	r4,zero
   80dfc:	01400284 	movi	r5,10
   80e00:	008aa780 	call	8aa78 <__mulsi3>
   80e04:	8c800007 	ldb	r18,0(r17)
   80e08:	a089883a 	add	r4,r20,r2
   80e0c:	8c400044 	addi	r17,r17,1
   80e10:	953ff404 	addi	r20,r18,-48
   80e14:	ad3ff92e 	bgeu	r21,r20,80dfc <___vfprintf_internal_r+0x4c0>
   80e18:	2007883a 	mov	r3,r4
   80e1c:	203f2d0e 	bge	r4,zero,80ad4 <___vfprintf_internal_r+0x198>
   80e20:	00ffffc4 	movi	r3,-1
   80e24:	003f2b06 	br	80ad4 <___vfprintf_internal_r+0x198>
   80e28:	d9412a17 	ldw	r5,1192(sp)
   80e2c:	29402014 	ori	r5,r5,128
   80e30:	d9412a15 	stw	r5,1192(sp)
   80e34:	8c800007 	ldb	r18,0(r17)
   80e38:	003f2506 	br	80ad0 <___vfprintf_internal_r+0x194>
   80e3c:	d9412a17 	ldw	r5,1192(sp)
   80e40:	1829883a 	mov	r20,r3
   80e44:	dd812785 	stb	r22,1182(sp)
   80e48:	29400414 	ori	r5,r5,16
   80e4c:	d9412a15 	stw	r5,1192(sp)
   80e50:	d8c12a17 	ldw	r3,1192(sp)
   80e54:	e011883a 	mov	r8,fp
   80e58:	1880080c 	andi	r2,r3,32
   80e5c:	1001e126 	beq	r2,zero,815e4 <___vfprintf_internal_r+0xca8>
   80e60:	d9012f17 	ldw	r4,1212(sp)
   80e64:	20800117 	ldw	r2,4(r4)
   80e68:	25400017 	ldw	r21,0(r4)
   80e6c:	21000204 	addi	r4,r4,8
   80e70:	d9012f15 	stw	r4,1212(sp)
   80e74:	102d883a 	mov	r22,r2
   80e78:	10046916 	blt	r2,zero,82020 <___vfprintf_internal_r+0x16e4>
   80e7c:	df012783 	ldbu	fp,1182(sp)
   80e80:	00c00044 	movi	r3,1
   80e84:	ad84b03a 	or	r2,r21,r22
   80e88:	a0000416 	blt	r20,zero,80e9c <___vfprintf_internal_r+0x560>
   80e8c:	d9412a17 	ldw	r5,1192(sp)
   80e90:	013fdfc4 	movi	r4,-129
   80e94:	290a703a 	and	r5,r5,r4
   80e98:	d9412a15 	stw	r5,1192(sp)
   80e9c:	1002491e 	bne	r2,zero,817c4 <___vfprintf_internal_r+0xe88>
   80ea0:	a002481e 	bne	r20,zero,817c4 <___vfprintf_internal_r+0xe88>
   80ea4:	18c03fcc 	andi	r3,r3,255
   80ea8:	1803871e 	bne	r3,zero,81cc8 <___vfprintf_internal_r+0x138c>
   80eac:	d9012a17 	ldw	r4,1192(sp)
   80eb0:	2080004c 	andi	r2,r4,1
   80eb4:	10038426 	beq	r2,zero,81cc8 <___vfprintf_internal_r+0x138c>
   80eb8:	d9413d17 	ldw	r5,1268(sp)
   80ebc:	00800c04 	movi	r2,48
   80ec0:	d8810dc5 	stb	r2,1079(sp)
   80ec4:	d9412e15 	stw	r5,1208(sp)
   80ec8:	dc010dc4 	addi	r16,sp,1079
   80ecc:	d8812e17 	ldw	r2,1208(sp)
   80ed0:	1500010e 	bge	r2,r20,80ed8 <___vfprintf_internal_r+0x59c>
   80ed4:	a005883a 	mov	r2,r20
   80ed8:	d8812b15 	stw	r2,1196(sp)
   80edc:	d8013315 	stw	zero,1228(sp)
   80ee0:	e0803fcc 	andi	r2,fp,255
   80ee4:	1080201c 	xori	r2,r2,128
   80ee8:	10bfe004 	addi	r2,r2,-128
   80eec:	10000326 	beq	r2,zero,80efc <___vfprintf_internal_r+0x5c0>
   80ef0:	d8c12b17 	ldw	r3,1196(sp)
   80ef4:	18c00044 	addi	r3,r3,1
   80ef8:	d8c12b15 	stw	r3,1196(sp)
   80efc:	d8c12a17 	ldw	r3,1192(sp)
   80f00:	18c0008c 	andi	r3,r3,2
   80f04:	d8c12d15 	stw	r3,1204(sp)
   80f08:	18000326 	beq	r3,zero,80f18 <___vfprintf_internal_r+0x5dc>
   80f0c:	d8c12b17 	ldw	r3,1196(sp)
   80f10:	18c00084 	addi	r3,r3,2
   80f14:	d8c12b15 	stw	r3,1196(sp)
   80f18:	d8c12a17 	ldw	r3,1192(sp)
   80f1c:	18c0210c 	andi	r3,r3,132
   80f20:	d8c13215 	stw	r3,1224(sp)
   80f24:	1802151e 	bne	r3,zero,8177c <___vfprintf_internal_r+0xe40>
   80f28:	d9013017 	ldw	r4,1216(sp)
   80f2c:	d8c12b17 	ldw	r3,1196(sp)
   80f30:	20f9c83a 	sub	fp,r4,r3
   80f34:	0702110e 	bge	zero,fp,8177c <___vfprintf_internal_r+0xe40>
   80f38:	02400404 	movi	r9,16
   80f3c:	d8c12017 	ldw	r3,1152(sp)
   80f40:	d8811f17 	ldw	r2,1148(sp)
   80f44:	4f059a0e 	bge	r9,fp,825b0 <___vfprintf_internal_r+0x1c74>
   80f48:	8809883a 	mov	r4,r17
   80f4c:	01400274 	movhi	r5,9
   80f50:	297f1084 	addi	r5,r5,-958
   80f54:	dc013c15 	stw	r16,1264(sp)
   80f58:	e023883a 	mov	r17,fp
   80f5c:	d9413615 	stw	r5,1240(sp)
   80f60:	482d883a 	mov	r22,r9
   80f64:	054001c4 	movi	r21,7
   80f68:	dc012c17 	ldw	r16,1200(sp)
   80f6c:	2039883a 	mov	fp,r4
   80f70:	00000306 	br	80f80 <___vfprintf_internal_r+0x644>
   80f74:	8c7ffc04 	addi	r17,r17,-16
   80f78:	42000204 	addi	r8,r8,8
   80f7c:	b440130e 	bge	r22,r17,80fcc <___vfprintf_internal_r+0x690>
   80f80:	18c00404 	addi	r3,r3,16
   80f84:	10800044 	addi	r2,r2,1
   80f88:	01000274 	movhi	r4,9
   80f8c:	213f1084 	addi	r4,r4,-958
   80f90:	41000015 	stw	r4,0(r8)
   80f94:	45800115 	stw	r22,4(r8)
   80f98:	d8c12015 	stw	r3,1152(sp)
   80f9c:	d8811f15 	stw	r2,1148(sp)
   80fa0:	a8bff40e 	bge	r21,r2,80f74 <___vfprintf_internal_r+0x638>
   80fa4:	8009883a 	mov	r4,r16
   80fa8:	980b883a 	mov	r5,r19
   80fac:	d9811e04 	addi	r6,sp,1144
   80fb0:	0087e380 	call	87e38 <__sprint_r>
   80fb4:	103f7d1e 	bne	r2,zero,80dac <___vfprintf_internal_r+0x470>
   80fb8:	8c7ffc04 	addi	r17,r17,-16
   80fbc:	d8c12017 	ldw	r3,1152(sp)
   80fc0:	d8811f17 	ldw	r2,1148(sp)
   80fc4:	da000404 	addi	r8,sp,16
   80fc8:	b47fed16 	blt	r22,r17,80f80 <___vfprintf_internal_r+0x644>
   80fcc:	dc013c17 	ldw	r16,1264(sp)
   80fd0:	e009883a 	mov	r4,fp
   80fd4:	8839883a 	mov	fp,r17
   80fd8:	2023883a 	mov	r17,r4
   80fdc:	d9413617 	ldw	r5,1240(sp)
   80fe0:	e0c7883a 	add	r3,fp,r3
   80fe4:	10800044 	addi	r2,r2,1
   80fe8:	41400015 	stw	r5,0(r8)
   80fec:	47000115 	stw	fp,4(r8)
   80ff0:	d8c12015 	stw	r3,1152(sp)
   80ff4:	d8811f15 	stw	r2,1148(sp)
   80ff8:	010001c4 	movi	r4,7
   80ffc:	20836b16 	blt	r4,r2,81dac <___vfprintf_internal_r+0x1470>
   81000:	d8812787 	ldb	r2,1182(sp)
   81004:	42000204 	addi	r8,r8,8
   81008:	10000c26 	beq	r2,zero,8103c <___vfprintf_internal_r+0x700>
   8100c:	d8811f17 	ldw	r2,1148(sp)
   81010:	d9012784 	addi	r4,sp,1182
   81014:	18c00044 	addi	r3,r3,1
   81018:	10800044 	addi	r2,r2,1
   8101c:	41000015 	stw	r4,0(r8)
   81020:	01000044 	movi	r4,1
   81024:	41000115 	stw	r4,4(r8)
   81028:	d8c12015 	stw	r3,1152(sp)
   8102c:	d8811f15 	stw	r2,1148(sp)
   81030:	010001c4 	movi	r4,7
   81034:	2082ef16 	blt	r4,r2,81bf4 <___vfprintf_internal_r+0x12b8>
   81038:	42000204 	addi	r8,r8,8
   8103c:	d8812d17 	ldw	r2,1204(sp)
   81040:	10000c26 	beq	r2,zero,81074 <___vfprintf_internal_r+0x738>
   81044:	d8811f17 	ldw	r2,1148(sp)
   81048:	d9012704 	addi	r4,sp,1180
   8104c:	18c00084 	addi	r3,r3,2
   81050:	10800044 	addi	r2,r2,1
   81054:	41000015 	stw	r4,0(r8)
   81058:	01000084 	movi	r4,2
   8105c:	41000115 	stw	r4,4(r8)
   81060:	d8c12015 	stw	r3,1152(sp)
   81064:	d8811f15 	stw	r2,1148(sp)
   81068:	010001c4 	movi	r4,7
   8106c:	2082e916 	blt	r4,r2,81c14 <___vfprintf_internal_r+0x12d8>
   81070:	42000204 	addi	r8,r8,8
   81074:	d9013217 	ldw	r4,1224(sp)
   81078:	00802004 	movi	r2,128
   8107c:	20823226 	beq	r4,r2,81948 <___vfprintf_internal_r+0x100c>
   81080:	d9012e17 	ldw	r4,1208(sp)
   81084:	a129c83a 	sub	r20,r20,r4
   81088:	05002d0e 	bge	zero,r20,81140 <___vfprintf_internal_r+0x804>
   8108c:	05800404 	movi	r22,16
   81090:	d8811f17 	ldw	r2,1148(sp)
   81094:	05400274 	movhi	r21,9
   81098:	ad7f0c84 	addi	r21,r21,-974
   8109c:	b5001f0e 	bge	r22,r20,8111c <___vfprintf_internal_r+0x7e0>
   810a0:	8809883a 	mov	r4,r17
   810a4:	dc012d15 	stw	r16,1204(sp)
   810a8:	a023883a 	mov	r17,r20
   810ac:	070001c4 	movi	fp,7
   810b0:	dc012c17 	ldw	r16,1200(sp)
   810b4:	2029883a 	mov	r20,r4
   810b8:	00000306 	br	810c8 <___vfprintf_internal_r+0x78c>
   810bc:	8c7ffc04 	addi	r17,r17,-16
   810c0:	42000204 	addi	r8,r8,8
   810c4:	b440110e 	bge	r22,r17,8110c <___vfprintf_internal_r+0x7d0>
   810c8:	18c00404 	addi	r3,r3,16
   810cc:	10800044 	addi	r2,r2,1
   810d0:	45c00015 	stw	r23,0(r8)
   810d4:	45800115 	stw	r22,4(r8)
   810d8:	d8c12015 	stw	r3,1152(sp)
   810dc:	d8811f15 	stw	r2,1148(sp)
   810e0:	e0bff60e 	bge	fp,r2,810bc <___vfprintf_internal_r+0x780>
   810e4:	8009883a 	mov	r4,r16
   810e8:	980b883a 	mov	r5,r19
   810ec:	d9811e04 	addi	r6,sp,1144
   810f0:	0087e380 	call	87e38 <__sprint_r>
   810f4:	103f2d1e 	bne	r2,zero,80dac <___vfprintf_internal_r+0x470>
   810f8:	8c7ffc04 	addi	r17,r17,-16
   810fc:	d8c12017 	ldw	r3,1152(sp)
   81100:	d8811f17 	ldw	r2,1148(sp)
   81104:	da000404 	addi	r8,sp,16
   81108:	b47fef16 	blt	r22,r17,810c8 <___vfprintf_internal_r+0x78c>
   8110c:	dc012d17 	ldw	r16,1204(sp)
   81110:	a009883a 	mov	r4,r20
   81114:	8829883a 	mov	r20,r17
   81118:	2023883a 	mov	r17,r4
   8111c:	1d07883a 	add	r3,r3,r20
   81120:	10800044 	addi	r2,r2,1
   81124:	45400015 	stw	r21,0(r8)
   81128:	45000115 	stw	r20,4(r8)
   8112c:	d8c12015 	stw	r3,1152(sp)
   81130:	d8811f15 	stw	r2,1148(sp)
   81134:	010001c4 	movi	r4,7
   81138:	2082a616 	blt	r4,r2,81bd4 <___vfprintf_internal_r+0x1298>
   8113c:	42000204 	addi	r8,r8,8
   81140:	d9412a17 	ldw	r5,1192(sp)
   81144:	2880400c 	andi	r2,r5,256
   81148:	1001b51e 	bne	r2,zero,81820 <___vfprintf_internal_r+0xee4>
   8114c:	d8812e17 	ldw	r2,1208(sp)
   81150:	d9012e17 	ldw	r4,1208(sp)
   81154:	44000015 	stw	r16,0(r8)
   81158:	1887883a 	add	r3,r3,r2
   8115c:	d8811f17 	ldw	r2,1148(sp)
   81160:	10800044 	addi	r2,r2,1
   81164:	41000115 	stw	r4,4(r8)
   81168:	d8c12015 	stw	r3,1152(sp)
   8116c:	d8811f15 	stw	r2,1148(sp)
   81170:	010001c4 	movi	r4,7
   81174:	20818b16 	blt	r4,r2,817a4 <___vfprintf_internal_r+0xe68>
   81178:	42000204 	addi	r8,r8,8
   8117c:	d9412a17 	ldw	r5,1192(sp)
   81180:	2880010c 	andi	r2,r5,4
   81184:	10003226 	beq	r2,zero,81250 <___vfprintf_internal_r+0x914>
   81188:	d8813017 	ldw	r2,1216(sp)
   8118c:	d9012b17 	ldw	r4,1196(sp)
   81190:	1121c83a 	sub	r16,r2,r4
   81194:	04002e0e 	bge	zero,r16,81250 <___vfprintf_internal_r+0x914>
   81198:	04800404 	movi	r18,16
   8119c:	d8811f17 	ldw	r2,1148(sp)
   811a0:	9405240e 	bge	r18,r16,82634 <___vfprintf_internal_r+0x1cf8>
   811a4:	01000274 	movhi	r4,9
   811a8:	213f1084 	addi	r4,r4,-958
   811ac:	d9013615 	stw	r4,1240(sp)
   811b0:	050001c4 	movi	r20,7
   811b4:	dd412c17 	ldw	r21,1200(sp)
   811b8:	00000306 	br	811c8 <___vfprintf_internal_r+0x88c>
   811bc:	843ffc04 	addi	r16,r16,-16
   811c0:	42000204 	addi	r8,r8,8
   811c4:	9400130e 	bge	r18,r16,81214 <___vfprintf_internal_r+0x8d8>
   811c8:	18c00404 	addi	r3,r3,16
   811cc:	10800044 	addi	r2,r2,1
   811d0:	01400274 	movhi	r5,9
   811d4:	297f1084 	addi	r5,r5,-958
   811d8:	41400015 	stw	r5,0(r8)
   811dc:	44800115 	stw	r18,4(r8)
   811e0:	d8c12015 	stw	r3,1152(sp)
   811e4:	d8811f15 	stw	r2,1148(sp)
   811e8:	a0bff40e 	bge	r20,r2,811bc <___vfprintf_internal_r+0x880>
   811ec:	a809883a 	mov	r4,r21
   811f0:	980b883a 	mov	r5,r19
   811f4:	d9811e04 	addi	r6,sp,1144
   811f8:	0087e380 	call	87e38 <__sprint_r>
   811fc:	103eeb1e 	bne	r2,zero,80dac <___vfprintf_internal_r+0x470>
   81200:	843ffc04 	addi	r16,r16,-16
   81204:	d8c12017 	ldw	r3,1152(sp)
   81208:	d8811f17 	ldw	r2,1148(sp)
   8120c:	da000404 	addi	r8,sp,16
   81210:	943fed16 	blt	r18,r16,811c8 <___vfprintf_internal_r+0x88c>
   81214:	d9013617 	ldw	r4,1240(sp)
   81218:	1c07883a 	add	r3,r3,r16
   8121c:	10800044 	addi	r2,r2,1
   81220:	41000015 	stw	r4,0(r8)
   81224:	44000115 	stw	r16,4(r8)
   81228:	d8c12015 	stw	r3,1152(sp)
   8122c:	d8811f15 	stw	r2,1148(sp)
   81230:	010001c4 	movi	r4,7
   81234:	2080060e 	bge	r4,r2,81250 <___vfprintf_internal_r+0x914>
   81238:	d9012c17 	ldw	r4,1200(sp)
   8123c:	980b883a 	mov	r5,r19
   81240:	d9811e04 	addi	r6,sp,1144
   81244:	0087e380 	call	87e38 <__sprint_r>
   81248:	103ed81e 	bne	r2,zero,80dac <___vfprintf_internal_r+0x470>
   8124c:	d8c12017 	ldw	r3,1152(sp)
   81250:	d8812b17 	ldw	r2,1196(sp)
   81254:	d9413017 	ldw	r5,1216(sp)
   81258:	1140010e 	bge	r2,r5,81260 <___vfprintf_internal_r+0x924>
   8125c:	2805883a 	mov	r2,r5
   81260:	d9013117 	ldw	r4,1220(sp)
   81264:	2089883a 	add	r4,r4,r2
   81268:	d9013115 	stw	r4,1220(sp)
   8126c:	1802381e 	bne	r3,zero,81b50 <___vfprintf_internal_r+0x1214>
   81270:	88800007 	ldb	r2,0(r17)
   81274:	d8011f15 	stw	zero,1148(sp)
   81278:	da000404 	addi	r8,sp,16
   8127c:	103def1e 	bne	r2,zero,80a3c <___vfprintf_internal_r+0x100>
   81280:	8821883a 	mov	r16,r17
   81284:	003e0506 	br	80a9c <___vfprintf_internal_r+0x160>
   81288:	1829883a 	mov	r20,r3
   8128c:	d8c12a17 	ldw	r3,1192(sp)
   81290:	dd812785 	stb	r22,1182(sp)
   81294:	e011883a 	mov	r8,fp
   81298:	1880020c 	andi	r2,r3,8
   8129c:	1003c926 	beq	r2,zero,821c4 <___vfprintf_internal_r+0x1888>
   812a0:	d9012f17 	ldw	r4,1212(sp)
   812a4:	d9412f17 	ldw	r5,1212(sp)
   812a8:	d8812f17 	ldw	r2,1212(sp)
   812ac:	21000017 	ldw	r4,0(r4)
   812b0:	29400117 	ldw	r5,4(r5)
   812b4:	10800204 	addi	r2,r2,8
   812b8:	d9013715 	stw	r4,1244(sp)
   812bc:	d9413915 	stw	r5,1252(sp)
   812c0:	d8812f15 	stw	r2,1212(sp)
   812c4:	d9013717 	ldw	r4,1244(sp)
   812c8:	d9413917 	ldw	r5,1252(sp)
   812cc:	da013f15 	stw	r8,1276(sp)
   812d0:	04000044 	movi	r16,1
   812d4:	0087a900 	call	87a90 <__fpclassifyd>
   812d8:	da013f17 	ldw	r8,1276(sp)
   812dc:	d9013717 	ldw	r4,1244(sp)
   812e0:	d9413917 	ldw	r5,1252(sp)
   812e4:	1403571e 	bne	r2,r16,82044 <___vfprintf_internal_r+0x1708>
   812e8:	000d883a 	mov	r6,zero
   812ec:	000f883a 	mov	r7,zero
   812f0:	008be140 	call	8be14 <__ledf2>
   812f4:	da013f17 	ldw	r8,1276(sp)
   812f8:	1004f416 	blt	r2,zero,826cc <___vfprintf_internal_r+0x1d90>
   812fc:	df012783 	ldbu	fp,1182(sp)
   81300:	008011c4 	movi	r2,71
   81304:	14847a0e 	bge	r2,r18,824f0 <___vfprintf_internal_r+0x1bb4>
   81308:	04000274 	movhi	r16,9
   8130c:	843efd04 	addi	r16,r16,-1036
   81310:	d9012a17 	ldw	r4,1192(sp)
   81314:	00bfdfc4 	movi	r2,-129
   81318:	00c000c4 	movi	r3,3
   8131c:	2088703a 	and	r4,r4,r2
   81320:	d8c12b15 	stw	r3,1196(sp)
   81324:	d9012a15 	stw	r4,1192(sp)
   81328:	d8c12e15 	stw	r3,1208(sp)
   8132c:	0029883a 	mov	r20,zero
   81330:	d8013315 	stw	zero,1228(sp)
   81334:	003eea06 	br	80ee0 <___vfprintf_internal_r+0x5a4>
   81338:	953ff404 	addi	r20,r18,-48
   8133c:	d8013015 	stw	zero,1216(sp)
   81340:	0009883a 	mov	r4,zero
   81344:	1825883a 	mov	r18,r3
   81348:	01400284 	movi	r5,10
   8134c:	008aa780 	call	8aa78 <__mulsi3>
   81350:	88c00007 	ldb	r3,0(r17)
   81354:	1509883a 	add	r4,r2,r20
   81358:	8c400044 	addi	r17,r17,1
   8135c:	1d3ff404 	addi	r20,r3,-48
   81360:	8805883a 	mov	r2,r17
   81364:	ad3ff82e 	bgeu	r21,r20,81348 <___vfprintf_internal_r+0xa0c>
   81368:	d9013015 	stw	r4,1216(sp)
   8136c:	9009883a 	mov	r4,r18
   81370:	1023883a 	mov	r17,r2
   81374:	1825883a 	mov	r18,r3
   81378:	2007883a 	mov	r3,r4
   8137c:	003dd506 	br	80ad4 <___vfprintf_internal_r+0x198>
   81380:	d8812a17 	ldw	r2,1192(sp)
   81384:	10800214 	ori	r2,r2,8
   81388:	d8812a15 	stw	r2,1192(sp)
   8138c:	8c800007 	ldb	r18,0(r17)
   81390:	003dcf06 	br	80ad0 <___vfprintf_internal_r+0x194>
   81394:	d9012a17 	ldw	r4,1192(sp)
   81398:	e011883a 	mov	r8,fp
   8139c:	1829883a 	mov	r20,r3
   813a0:	21000414 	ori	r4,r4,16
   813a4:	d9012a15 	stw	r4,1192(sp)
   813a8:	d9412a17 	ldw	r5,1192(sp)
   813ac:	2880080c 	andi	r2,r5,32
   813b0:	1000cf26 	beq	r2,zero,816f0 <___vfprintf_internal_r+0xdb4>
   813b4:	d8812f17 	ldw	r2,1212(sp)
   813b8:	0007883a 	mov	r3,zero
   813bc:	15400017 	ldw	r21,0(r2)
   813c0:	15800117 	ldw	r22,4(r2)
   813c4:	10800204 	addi	r2,r2,8
   813c8:	d8812f15 	stw	r2,1212(sp)
   813cc:	ad84b03a 	or	r2,r21,r22
   813d0:	d8012785 	stb	zero,1182(sp)
   813d4:	0039883a 	mov	fp,zero
   813d8:	003eab06 	br	80e88 <___vfprintf_internal_r+0x54c>
   813dc:	d9012a17 	ldw	r4,1192(sp)
   813e0:	e011883a 	mov	r8,fp
   813e4:	1829883a 	mov	r20,r3
   813e8:	21000414 	ori	r4,r4,16
   813ec:	d9012a15 	stw	r4,1192(sp)
   813f0:	d9412a17 	ldw	r5,1192(sp)
   813f4:	2880080c 	andi	r2,r5,32
   813f8:	1000cd26 	beq	r2,zero,81730 <___vfprintf_internal_r+0xdf4>
   813fc:	d8812f17 	ldw	r2,1212(sp)
   81400:	00c00044 	movi	r3,1
   81404:	15400017 	ldw	r21,0(r2)
   81408:	15800117 	ldw	r22,4(r2)
   8140c:	10800204 	addi	r2,r2,8
   81410:	d8812f15 	stw	r2,1212(sp)
   81414:	ad84b03a 	or	r2,r21,r22
   81418:	003fed06 	br	813d0 <___vfprintf_internal_r+0xa94>
   8141c:	d9012a17 	ldw	r4,1192(sp)
   81420:	dd812785 	stb	r22,1182(sp)
   81424:	e011883a 	mov	r8,fp
   81428:	2080080c 	andi	r2,r4,32
   8142c:	10039226 	beq	r2,zero,82278 <___vfprintf_internal_r+0x193c>
   81430:	d9412f17 	ldw	r5,1212(sp)
   81434:	d9013117 	ldw	r4,1220(sp)
   81438:	28800017 	ldw	r2,0(r5)
   8143c:	2007d7fa 	srai	r3,r4,31
   81440:	29400104 	addi	r5,r5,4
   81444:	d9412f15 	stw	r5,1212(sp)
   81448:	11000015 	stw	r4,0(r2)
   8144c:	10c00115 	stw	r3,4(r2)
   81450:	003d7806 	br	80a34 <___vfprintf_internal_r+0xf8>
   81454:	d8c12f17 	ldw	r3,1212(sp)
   81458:	d9012f17 	ldw	r4,1212(sp)
   8145c:	e011883a 	mov	r8,fp
   81460:	18800017 	ldw	r2,0(r3)
   81464:	21000104 	addi	r4,r4,4
   81468:	00c00044 	movi	r3,1
   8146c:	d8c12b15 	stw	r3,1196(sp)
   81470:	d8012785 	stb	zero,1182(sp)
   81474:	d8810405 	stb	r2,1040(sp)
   81478:	d9012f15 	stw	r4,1212(sp)
   8147c:	d8c12e15 	stw	r3,1208(sp)
   81480:	0029883a 	mov	r20,zero
   81484:	d8013315 	stw	zero,1228(sp)
   81488:	dc010404 	addi	r16,sp,1040
   8148c:	0005883a 	mov	r2,zero
   81490:	003e9a06 	br	80efc <___vfprintf_internal_r+0x5c0>
   81494:	d9412a17 	ldw	r5,1192(sp)
   81498:	01000274 	movhi	r4,9
   8149c:	213f0504 	addi	r4,r4,-1004
   814a0:	dd812785 	stb	r22,1182(sp)
   814a4:	d9013b15 	stw	r4,1260(sp)
   814a8:	2880080c 	andi	r2,r5,32
   814ac:	e011883a 	mov	r8,fp
   814b0:	1829883a 	mov	r20,r3
   814b4:	10002f26 	beq	r2,zero,81574 <___vfprintf_internal_r+0xc38>
   814b8:	d8812f17 	ldw	r2,1212(sp)
   814bc:	15400017 	ldw	r21,0(r2)
   814c0:	15800117 	ldw	r22,4(r2)
   814c4:	10800204 	addi	r2,r2,8
   814c8:	d8812f15 	stw	r2,1212(sp)
   814cc:	d9012a17 	ldw	r4,1192(sp)
   814d0:	2080004c 	andi	r2,r4,1
   814d4:	10025f26 	beq	r2,zero,81e54 <___vfprintf_internal_r+0x1518>
   814d8:	ad84b03a 	or	r2,r21,r22
   814dc:	10034e26 	beq	r2,zero,82218 <___vfprintf_internal_r+0x18dc>
   814e0:	00c00c04 	movi	r3,48
   814e4:	21000094 	ori	r4,r4,2
   814e8:	d8c12705 	stb	r3,1180(sp)
   814ec:	dc812745 	stb	r18,1181(sp)
   814f0:	d9012a15 	stw	r4,1192(sp)
   814f4:	00c00084 	movi	r3,2
   814f8:	003fb506 	br	813d0 <___vfprintf_internal_r+0xa94>
   814fc:	b0803fcc 	andi	r2,r22,255
   81500:	1080201c 	xori	r2,r2,128
   81504:	10bfe004 	addi	r2,r2,-128
   81508:	1003501e 	bne	r2,zero,8224c <___vfprintf_internal_r+0x1910>
   8150c:	05800804 	movi	r22,32
   81510:	8c800007 	ldb	r18,0(r17)
   81514:	003d6e06 	br	80ad0 <___vfprintf_internal_r+0x194>
   81518:	d9012a17 	ldw	r4,1192(sp)
   8151c:	21000054 	ori	r4,r4,1
   81520:	d9012a15 	stw	r4,1192(sp)
   81524:	8c800007 	ldb	r18,0(r17)
   81528:	003d6906 	br	80ad0 <___vfprintf_internal_r+0x194>
   8152c:	d9412f17 	ldw	r5,1212(sp)
   81530:	d9012f17 	ldw	r4,1212(sp)
   81534:	29400017 	ldw	r5,0(r5)
   81538:	20800104 	addi	r2,r4,4
   8153c:	d9413015 	stw	r5,1216(sp)
   81540:	283dc616 	blt	r5,zero,80c5c <___vfprintf_internal_r+0x320>
   81544:	d8812f15 	stw	r2,1212(sp)
   81548:	8c800007 	ldb	r18,0(r17)
   8154c:	003d6006 	br	80ad0 <___vfprintf_internal_r+0x194>
   81550:	d9412a17 	ldw	r5,1192(sp)
   81554:	00800274 	movhi	r2,9
   81558:	10bf0004 	addi	r2,r2,-1024
   8155c:	d8813b15 	stw	r2,1260(sp)
   81560:	dd812785 	stb	r22,1182(sp)
   81564:	2880080c 	andi	r2,r5,32
   81568:	e011883a 	mov	r8,fp
   8156c:	1829883a 	mov	r20,r3
   81570:	103fd11e 	bne	r2,zero,814b8 <___vfprintf_internal_r+0xb7c>
   81574:	d8c12a17 	ldw	r3,1192(sp)
   81578:	1880040c 	andi	r2,r3,16
   8157c:	10033526 	beq	r2,zero,82254 <___vfprintf_internal_r+0x1918>
   81580:	d9012f17 	ldw	r4,1212(sp)
   81584:	002d883a 	mov	r22,zero
   81588:	25400017 	ldw	r21,0(r4)
   8158c:	21000104 	addi	r4,r4,4
   81590:	d9012f15 	stw	r4,1212(sp)
   81594:	003fcd06 	br	814cc <___vfprintf_internal_r+0xb90>
   81598:	d9012a17 	ldw	r4,1192(sp)
   8159c:	21001014 	ori	r4,r4,64
   815a0:	d9012a15 	stw	r4,1192(sp)
   815a4:	8c800007 	ldb	r18,0(r17)
   815a8:	003d4906 	br	80ad0 <___vfprintf_internal_r+0x194>
   815ac:	8c800007 	ldb	r18,0(r17)
   815b0:	01401b04 	movi	r5,108
   815b4:	8805883a 	mov	r2,r17
   815b8:	9143db26 	beq	r18,r5,82528 <___vfprintf_internal_r+0x1bec>
   815bc:	d9412a17 	ldw	r5,1192(sp)
   815c0:	29400414 	ori	r5,r5,16
   815c4:	d9412a15 	stw	r5,1192(sp)
   815c8:	003d4106 	br	80ad0 <___vfprintf_internal_r+0x194>
   815cc:	1829883a 	mov	r20,r3
   815d0:	d8c12a17 	ldw	r3,1192(sp)
   815d4:	dd812785 	stb	r22,1182(sp)
   815d8:	e011883a 	mov	r8,fp
   815dc:	1880080c 	andi	r2,r3,32
   815e0:	103e1f1e 	bne	r2,zero,80e60 <___vfprintf_internal_r+0x524>
   815e4:	d9412a17 	ldw	r5,1192(sp)
   815e8:	2880040c 	andi	r2,r5,16
   815ec:	10032f26 	beq	r2,zero,822ac <___vfprintf_internal_r+0x1970>
   815f0:	d8812f17 	ldw	r2,1212(sp)
   815f4:	15400017 	ldw	r21,0(r2)
   815f8:	10800104 	addi	r2,r2,4
   815fc:	d8812f15 	stw	r2,1212(sp)
   81600:	a82dd7fa 	srai	r22,r21,31
   81604:	b005883a 	mov	r2,r22
   81608:	003e1b06 	br	80e78 <___vfprintf_internal_r+0x53c>
   8160c:	d8812a17 	ldw	r2,1192(sp)
   81610:	10800814 	ori	r2,r2,32
   81614:	d8812a15 	stw	r2,1192(sp)
   81618:	8c800007 	ldb	r18,0(r17)
   8161c:	003d2c06 	br	80ad0 <___vfprintf_internal_r+0x194>
   81620:	1829883a 	mov	r20,r3
   81624:	d8c12f17 	ldw	r3,1212(sp)
   81628:	d8012785 	stb	zero,1182(sp)
   8162c:	e011883a 	mov	r8,fp
   81630:	1c000017 	ldw	r16,0(r3)
   81634:	1d400104 	addi	r21,r3,4
   81638:	80040226 	beq	r16,zero,82644 <___vfprintf_internal_r+0x1d08>
   8163c:	8009883a 	mov	r4,r16
   81640:	a003c716 	blt	r20,zero,82560 <___vfprintf_internal_r+0x1c24>
   81644:	000b883a 	mov	r5,zero
   81648:	a00d883a 	mov	r6,r20
   8164c:	df013f15 	stw	fp,1276(sp)
   81650:	0085ecc0 	call	85ecc <memchr>
   81654:	da013f17 	ldw	r8,1276(sp)
   81658:	10044326 	beq	r2,zero,82768 <___vfprintf_internal_r+0x1e2c>
   8165c:	1405c83a 	sub	r2,r2,r16
   81660:	d8812e15 	stw	r2,1208(sp)
   81664:	a0837c16 	blt	r20,r2,82458 <___vfprintf_internal_r+0x1b1c>
   81668:	d8812e17 	ldw	r2,1208(sp)
   8166c:	1003c116 	blt	r2,zero,82574 <___vfprintf_internal_r+0x1c38>
   81670:	df012783 	ldbu	fp,1182(sp)
   81674:	d8812b15 	stw	r2,1196(sp)
   81678:	dd412f15 	stw	r21,1212(sp)
   8167c:	0029883a 	mov	r20,zero
   81680:	d8013315 	stw	zero,1228(sp)
   81684:	003e1606 	br	80ee0 <___vfprintf_internal_r+0x5a4>
   81688:	d9012f17 	ldw	r4,1212(sp)
   8168c:	d9412a17 	ldw	r5,1192(sp)
   81690:	00800c04 	movi	r2,48
   81694:	25400017 	ldw	r21,0(r4)
   81698:	d8812705 	stb	r2,1180(sp)
   8169c:	00801e04 	movi	r2,120
   816a0:	29400094 	ori	r5,r5,2
   816a4:	d8812745 	stb	r2,1181(sp)
   816a8:	21000104 	addi	r4,r4,4
   816ac:	00800274 	movhi	r2,9
   816b0:	10bf0504 	addi	r2,r2,-1004
   816b4:	1829883a 	mov	r20,r3
   816b8:	d8813b15 	stw	r2,1260(sp)
   816bc:	e011883a 	mov	r8,fp
   816c0:	002d883a 	mov	r22,zero
   816c4:	d9412a15 	stw	r5,1192(sp)
   816c8:	d9012f15 	stw	r4,1212(sp)
   816cc:	00c00084 	movi	r3,2
   816d0:	04801e04 	movi	r18,120
   816d4:	a805883a 	mov	r2,r21
   816d8:	003f3d06 	br	813d0 <___vfprintf_internal_r+0xa94>
   816dc:	d9412a17 	ldw	r5,1192(sp)
   816e0:	e011883a 	mov	r8,fp
   816e4:	1829883a 	mov	r20,r3
   816e8:	2880080c 	andi	r2,r5,32
   816ec:	103f311e 	bne	r2,zero,813b4 <___vfprintf_internal_r+0xa78>
   816f0:	d8c12a17 	ldw	r3,1192(sp)
   816f4:	1880040c 	andi	r2,r3,16
   816f8:	1002c926 	beq	r2,zero,82220 <___vfprintf_internal_r+0x18e4>
   816fc:	d9012f17 	ldw	r4,1212(sp)
   81700:	002d883a 	mov	r22,zero
   81704:	0007883a 	mov	r3,zero
   81708:	25400017 	ldw	r21,0(r4)
   8170c:	21000104 	addi	r4,r4,4
   81710:	d9012f15 	stw	r4,1212(sp)
   81714:	a805883a 	mov	r2,r21
   81718:	003f2d06 	br	813d0 <___vfprintf_internal_r+0xa94>
   8171c:	d9412a17 	ldw	r5,1192(sp)
   81720:	e011883a 	mov	r8,fp
   81724:	1829883a 	mov	r20,r3
   81728:	2880080c 	andi	r2,r5,32
   8172c:	103f331e 	bne	r2,zero,813fc <___vfprintf_internal_r+0xac0>
   81730:	d8c12a17 	ldw	r3,1192(sp)
   81734:	1880040c 	andi	r2,r3,16
   81738:	1002ac26 	beq	r2,zero,821ec <___vfprintf_internal_r+0x18b0>
   8173c:	d9012f17 	ldw	r4,1212(sp)
   81740:	002d883a 	mov	r22,zero
   81744:	00c00044 	movi	r3,1
   81748:	25400017 	ldw	r21,0(r4)
   8174c:	21000104 	addi	r4,r4,4
   81750:	d9012f15 	stw	r4,1212(sp)
   81754:	a805883a 	mov	r2,r21
   81758:	003f1d06 	br	813d0 <___vfprintf_internal_r+0xa94>
   8175c:	dd812785 	stb	r22,1182(sp)
   81760:	e011883a 	mov	r8,fp
   81764:	903d8b26 	beq	r18,zero,80d94 <___vfprintf_internal_r+0x458>
   81768:	00c00044 	movi	r3,1
   8176c:	d8c12b15 	stw	r3,1196(sp)
   81770:	dc810405 	stb	r18,1040(sp)
   81774:	d8012785 	stb	zero,1182(sp)
   81778:	003f4006 	br	8147c <___vfprintf_internal_r+0xb40>
   8177c:	d8c12017 	ldw	r3,1152(sp)
   81780:	003e2106 	br	81008 <___vfprintf_internal_r+0x6cc>
   81784:	45400015 	stw	r21,0(r8)
   81788:	44000115 	stw	r16,4(r8)
   8178c:	1c07883a 	add	r3,r3,r16
   81790:	10800044 	addi	r2,r2,1
   81794:	d8c12015 	stw	r3,1152(sp)
   81798:	d8811f15 	stw	r2,1148(sp)
   8179c:	010001c4 	movi	r4,7
   817a0:	20be750e 	bge	r4,r2,81178 <___vfprintf_internal_r+0x83c>
   817a4:	d9012c17 	ldw	r4,1200(sp)
   817a8:	980b883a 	mov	r5,r19
   817ac:	d9811e04 	addi	r6,sp,1144
   817b0:	0087e380 	call	87e38 <__sprint_r>
   817b4:	103d7d1e 	bne	r2,zero,80dac <___vfprintf_internal_r+0x470>
   817b8:	d8c12017 	ldw	r3,1152(sp)
   817bc:	da000404 	addi	r8,sp,16
   817c0:	003e6e06 	br	8117c <___vfprintf_internal_r+0x840>
   817c4:	18803fcc 	andi	r2,r3,255
   817c8:	00c00044 	movi	r3,1
   817cc:	10c11926 	beq	r2,r3,81c34 <___vfprintf_internal_r+0x12f8>
   817d0:	00c00084 	movi	r3,2
   817d4:	10c0e41e 	bne	r2,r3,81b68 <___vfprintf_internal_r+0x122c>
   817d8:	d9413b17 	ldw	r5,1260(sp)
   817dc:	d8c10dc4 	addi	r3,sp,1079
   817e0:	a88003cc 	andi	r2,r21,15
   817e4:	b008973a 	slli	r4,r22,28
   817e8:	2885883a 	add	r2,r5,r2
   817ec:	a82ad13a 	srli	r21,r21,4
   817f0:	10800003 	ldbu	r2,0(r2)
   817f4:	b02cd13a 	srli	r22,r22,4
   817f8:	256ab03a 	or	r21,r4,r21
   817fc:	18800005 	stb	r2,0(r3)
   81800:	ad84b03a 	or	r2,r21,r22
   81804:	1821883a 	mov	r16,r3
   81808:	18ffffc4 	addi	r3,r3,-1
   8180c:	103ff41e 	bne	r2,zero,817e0 <___vfprintf_internal_r+0xea4>
   81810:	d8c12917 	ldw	r3,1188(sp)
   81814:	1c07c83a 	sub	r3,r3,r16
   81818:	d8c12e15 	stw	r3,1208(sp)
   8181c:	003dab06 	br	80ecc <___vfprintf_internal_r+0x590>
   81820:	00801944 	movi	r2,101
   81824:	14807e0e 	bge	r2,r18,81a20 <___vfprintf_internal_r+0x10e4>
   81828:	d9013717 	ldw	r4,1244(sp)
   8182c:	d9413917 	ldw	r5,1252(sp)
   81830:	000d883a 	mov	r6,zero
   81834:	000f883a 	mov	r7,zero
   81838:	d8c13e15 	stw	r3,1272(sp)
   8183c:	da013f15 	stw	r8,1276(sp)
   81840:	008bcb80 	call	8bcb8 <__eqdf2>
   81844:	d8c13e17 	ldw	r3,1272(sp)
   81848:	da013f17 	ldw	r8,1276(sp)
   8184c:	1001211e 	bne	r2,zero,81cd4 <___vfprintf_internal_r+0x1398>
   81850:	d8811f17 	ldw	r2,1148(sp)
   81854:	01000044 	movi	r4,1
   81858:	18c00044 	addi	r3,r3,1
   8185c:	10800044 	addi	r2,r2,1
   81860:	01400274 	movhi	r5,9
   81864:	297f0c04 	addi	r5,r5,-976
   81868:	41000115 	stw	r4,4(r8)
   8186c:	41400015 	stw	r5,0(r8)
   81870:	d8c12015 	stw	r3,1152(sp)
   81874:	d8811f15 	stw	r2,1148(sp)
   81878:	010001c4 	movi	r4,7
   8187c:	2082a316 	blt	r4,r2,8230c <___vfprintf_internal_r+0x19d0>
   81880:	42000204 	addi	r8,r8,8
   81884:	d8812617 	ldw	r2,1176(sp)
   81888:	d9013517 	ldw	r4,1236(sp)
   8188c:	11000316 	blt	r2,r4,8189c <___vfprintf_internal_r+0xf60>
   81890:	d9412a17 	ldw	r5,1192(sp)
   81894:	2880004c 	andi	r2,r5,1
   81898:	103e3826 	beq	r2,zero,8117c <___vfprintf_internal_r+0x840>
   8189c:	d8813817 	ldw	r2,1248(sp)
   818a0:	d9013417 	ldw	r4,1232(sp)
   818a4:	d9413817 	ldw	r5,1248(sp)
   818a8:	1887883a 	add	r3,r3,r2
   818ac:	d8811f17 	ldw	r2,1148(sp)
   818b0:	41000015 	stw	r4,0(r8)
   818b4:	41400115 	stw	r5,4(r8)
   818b8:	10800044 	addi	r2,r2,1
   818bc:	d8c12015 	stw	r3,1152(sp)
   818c0:	d8811f15 	stw	r2,1148(sp)
   818c4:	010001c4 	movi	r4,7
   818c8:	20831d16 	blt	r4,r2,82540 <___vfprintf_internal_r+0x1c04>
   818cc:	42000204 	addi	r8,r8,8
   818d0:	d8813517 	ldw	r2,1236(sp)
   818d4:	143fffc4 	addi	r16,r2,-1
   818d8:	043e280e 	bge	zero,r16,8117c <___vfprintf_internal_r+0x840>
   818dc:	04800404 	movi	r18,16
   818e0:	d8811f17 	ldw	r2,1148(sp)
   818e4:	05400274 	movhi	r21,9
   818e8:	ad7f0c84 	addi	r21,r21,-974
   818ec:	943fa50e 	bge	r18,r16,81784 <___vfprintf_internal_r+0xe48>
   818f0:	050001c4 	movi	r20,7
   818f4:	dd812c17 	ldw	r22,1200(sp)
   818f8:	00000306 	br	81908 <___vfprintf_internal_r+0xfcc>
   818fc:	42000204 	addi	r8,r8,8
   81900:	843ffc04 	addi	r16,r16,-16
   81904:	943f9f0e 	bge	r18,r16,81784 <___vfprintf_internal_r+0xe48>
   81908:	18c00404 	addi	r3,r3,16
   8190c:	10800044 	addi	r2,r2,1
   81910:	45c00015 	stw	r23,0(r8)
   81914:	44800115 	stw	r18,4(r8)
   81918:	d8c12015 	stw	r3,1152(sp)
   8191c:	d8811f15 	stw	r2,1148(sp)
   81920:	a0bff60e 	bge	r20,r2,818fc <___vfprintf_internal_r+0xfc0>
   81924:	b009883a 	mov	r4,r22
   81928:	980b883a 	mov	r5,r19
   8192c:	d9811e04 	addi	r6,sp,1144
   81930:	0087e380 	call	87e38 <__sprint_r>
   81934:	103d1d1e 	bne	r2,zero,80dac <___vfprintf_internal_r+0x470>
   81938:	d8c12017 	ldw	r3,1152(sp)
   8193c:	d8811f17 	ldw	r2,1148(sp)
   81940:	da000404 	addi	r8,sp,16
   81944:	003fee06 	br	81900 <___vfprintf_internal_r+0xfc4>
   81948:	d9413017 	ldw	r5,1216(sp)
   8194c:	d8812b17 	ldw	r2,1196(sp)
   81950:	28adc83a 	sub	r22,r5,r2
   81954:	05bdca0e 	bge	zero,r22,81080 <___vfprintf_internal_r+0x744>
   81958:	07000404 	movi	fp,16
   8195c:	d8811f17 	ldw	r2,1148(sp)
   81960:	05400274 	movhi	r21,9
   81964:	ad7f0c84 	addi	r21,r21,-974
   81968:	e580230e 	bge	fp,r22,819f8 <___vfprintf_internal_r+0x10bc>
   8196c:	a809883a 	mov	r4,r21
   81970:	dc012d15 	stw	r16,1204(sp)
   81974:	882b883a 	mov	r21,r17
   81978:	01c001c4 	movi	r7,7
   8197c:	b023883a 	mov	r17,r22
   81980:	dc012c17 	ldw	r16,1200(sp)
   81984:	202d883a 	mov	r22,r4
   81988:	00000306 	br	81998 <___vfprintf_internal_r+0x105c>
   8198c:	8c7ffc04 	addi	r17,r17,-16
   81990:	42000204 	addi	r8,r8,8
   81994:	e440130e 	bge	fp,r17,819e4 <___vfprintf_internal_r+0x10a8>
   81998:	18c00404 	addi	r3,r3,16
   8199c:	10800044 	addi	r2,r2,1
   819a0:	45c00015 	stw	r23,0(r8)
   819a4:	47000115 	stw	fp,4(r8)
   819a8:	d8c12015 	stw	r3,1152(sp)
   819ac:	d8811f15 	stw	r2,1148(sp)
   819b0:	38bff60e 	bge	r7,r2,8198c <___vfprintf_internal_r+0x1050>
   819b4:	8009883a 	mov	r4,r16
   819b8:	980b883a 	mov	r5,r19
   819bc:	d9811e04 	addi	r6,sp,1144
   819c0:	d9c13e15 	stw	r7,1272(sp)
   819c4:	0087e380 	call	87e38 <__sprint_r>
   819c8:	d9c13e17 	ldw	r7,1272(sp)
   819cc:	103cf71e 	bne	r2,zero,80dac <___vfprintf_internal_r+0x470>
   819d0:	8c7ffc04 	addi	r17,r17,-16
   819d4:	d8c12017 	ldw	r3,1152(sp)
   819d8:	d8811f17 	ldw	r2,1148(sp)
   819dc:	da000404 	addi	r8,sp,16
   819e0:	e47fed16 	blt	fp,r17,81998 <___vfprintf_internal_r+0x105c>
   819e4:	dc012d17 	ldw	r16,1204(sp)
   819e8:	b009883a 	mov	r4,r22
   819ec:	882d883a 	mov	r22,r17
   819f0:	a823883a 	mov	r17,r21
   819f4:	202b883a 	mov	r21,r4
   819f8:	1d87883a 	add	r3,r3,r22
   819fc:	10800044 	addi	r2,r2,1
   81a00:	45400015 	stw	r21,0(r8)
   81a04:	45800115 	stw	r22,4(r8)
   81a08:	d8c12015 	stw	r3,1152(sp)
   81a0c:	d8811f15 	stw	r2,1148(sp)
   81a10:	010001c4 	movi	r4,7
   81a14:	20817a16 	blt	r4,r2,82000 <___vfprintf_internal_r+0x16c4>
   81a18:	42000204 	addi	r8,r8,8
   81a1c:	003d9806 	br	81080 <___vfprintf_internal_r+0x744>
   81a20:	d9013517 	ldw	r4,1236(sp)
   81a24:	00800044 	movi	r2,1
   81a28:	1100340e 	bge	r2,r4,81afc <___vfprintf_internal_r+0x11c0>
   81a2c:	dc811f17 	ldw	r18,1148(sp)
   81a30:	00800044 	movi	r2,1
   81a34:	18c00044 	addi	r3,r3,1
   81a38:	94800044 	addi	r18,r18,1
   81a3c:	40800115 	stw	r2,4(r8)
   81a40:	44000015 	stw	r16,0(r8)
   81a44:	d8c12015 	stw	r3,1152(sp)
   81a48:	dc811f15 	stw	r18,1148(sp)
   81a4c:	008001c4 	movi	r2,7
   81a50:	14814e16 	blt	r2,r18,81f8c <___vfprintf_internal_r+0x1650>
   81a54:	42000204 	addi	r8,r8,8
   81a58:	d8813817 	ldw	r2,1248(sp)
   81a5c:	94800044 	addi	r18,r18,1
   81a60:	dc811f15 	stw	r18,1148(sp)
   81a64:	18ad883a 	add	r22,r3,r2
   81a68:	d8c13417 	ldw	r3,1232(sp)
   81a6c:	40800115 	stw	r2,4(r8)
   81a70:	dd812015 	stw	r22,1152(sp)
   81a74:	40c00015 	stw	r3,0(r8)
   81a78:	008001c4 	movi	r2,7
   81a7c:	14814c16 	blt	r2,r18,81fb0 <___vfprintf_internal_r+0x1674>
   81a80:	45000204 	addi	r20,r8,8
   81a84:	d9013717 	ldw	r4,1244(sp)
   81a88:	d9413917 	ldw	r5,1252(sp)
   81a8c:	000d883a 	mov	r6,zero
   81a90:	000f883a 	mov	r7,zero
   81a94:	008bcb80 	call	8bcb8 <__eqdf2>
   81a98:	1000cd26 	beq	r2,zero,81dd0 <___vfprintf_internal_r+0x1494>
   81a9c:	d9013517 	ldw	r4,1236(sp)
   81aa0:	84000044 	addi	r16,r16,1
   81aa4:	94800044 	addi	r18,r18,1
   81aa8:	20bfffc4 	addi	r2,r4,-1
   81aac:	b0ad883a 	add	r22,r22,r2
   81ab0:	a0800115 	stw	r2,4(r20)
   81ab4:	a4000015 	stw	r16,0(r20)
   81ab8:	dd812015 	stw	r22,1152(sp)
   81abc:	dc811f15 	stw	r18,1148(sp)
   81ac0:	008001c4 	movi	r2,7
   81ac4:	14801916 	blt	r2,r18,81b2c <___vfprintf_internal_r+0x11f0>
   81ac8:	a5000204 	addi	r20,r20,8
   81acc:	d9013a17 	ldw	r4,1256(sp)
   81ad0:	d88122c4 	addi	r2,sp,1163
   81ad4:	94800044 	addi	r18,r18,1
   81ad8:	2587883a 	add	r3,r4,r22
   81adc:	a0800015 	stw	r2,0(r20)
   81ae0:	a1000115 	stw	r4,4(r20)
   81ae4:	d8c12015 	stw	r3,1152(sp)
   81ae8:	dc811f15 	stw	r18,1148(sp)
   81aec:	008001c4 	movi	r2,7
   81af0:	14bf2c16 	blt	r2,r18,817a4 <___vfprintf_internal_r+0xe68>
   81af4:	a2000204 	addi	r8,r20,8
   81af8:	003da006 	br	8117c <___vfprintf_internal_r+0x840>
   81afc:	d9412a17 	ldw	r5,1192(sp)
   81b00:	2888703a 	and	r4,r5,r2
   81b04:	203fc91e 	bne	r4,zero,81a2c <___vfprintf_internal_r+0x10f0>
   81b08:	dc811f17 	ldw	r18,1148(sp)
   81b0c:	1d800044 	addi	r22,r3,1
   81b10:	40800115 	stw	r2,4(r8)
   81b14:	94800044 	addi	r18,r18,1
   81b18:	44000015 	stw	r16,0(r8)
   81b1c:	dd812015 	stw	r22,1152(sp)
   81b20:	dc811f15 	stw	r18,1148(sp)
   81b24:	008001c4 	movi	r2,7
   81b28:	1482740e 	bge	r2,r18,824fc <___vfprintf_internal_r+0x1bc0>
   81b2c:	d9012c17 	ldw	r4,1200(sp)
   81b30:	980b883a 	mov	r5,r19
   81b34:	d9811e04 	addi	r6,sp,1144
   81b38:	0087e380 	call	87e38 <__sprint_r>
   81b3c:	103c9b1e 	bne	r2,zero,80dac <___vfprintf_internal_r+0x470>
   81b40:	dd812017 	ldw	r22,1152(sp)
   81b44:	dc811f17 	ldw	r18,1148(sp)
   81b48:	dd000404 	addi	r20,sp,16
   81b4c:	003fdf06 	br	81acc <___vfprintf_internal_r+0x1190>
   81b50:	d9012c17 	ldw	r4,1200(sp)
   81b54:	980b883a 	mov	r5,r19
   81b58:	d9811e04 	addi	r6,sp,1144
   81b5c:	0087e380 	call	87e38 <__sprint_r>
   81b60:	103dc326 	beq	r2,zero,81270 <___vfprintf_internal_r+0x934>
   81b64:	003c9106 	br	80dac <___vfprintf_internal_r+0x470>
   81b68:	d8c10dc4 	addi	r3,sp,1079
   81b6c:	a808d0fa 	srli	r4,r21,3
   81b70:	b00a977a 	slli	r5,r22,29
   81b74:	b02cd0fa 	srli	r22,r22,3
   81b78:	ad4001cc 	andi	r21,r21,7
   81b7c:	a8800c04 	addi	r2,r21,48
   81b80:	292ab03a 	or	r21,r5,r4
   81b84:	18800005 	stb	r2,0(r3)
   81b88:	ad88b03a 	or	r4,r21,r22
   81b8c:	1821883a 	mov	r16,r3
   81b90:	18ffffc4 	addi	r3,r3,-1
   81b94:	203ff51e 	bne	r4,zero,81b6c <___vfprintf_internal_r+0x1230>
   81b98:	d9412a17 	ldw	r5,1192(sp)
   81b9c:	2900004c 	andi	r4,r5,1
   81ba0:	800b883a 	mov	r5,r16
   81ba4:	203f1a26 	beq	r4,zero,81810 <___vfprintf_internal_r+0xed4>
   81ba8:	10803fcc 	andi	r2,r2,255
   81bac:	1080201c 	xori	r2,r2,128
   81bb0:	10bfe004 	addi	r2,r2,-128
   81bb4:	01000c04 	movi	r4,48
   81bb8:	113f1526 	beq	r2,r4,81810 <___vfprintf_internal_r+0xed4>
   81bbc:	1821883a 	mov	r16,r3
   81bc0:	d8c12917 	ldw	r3,1188(sp)
   81bc4:	293fffc5 	stb	r4,-1(r5)
   81bc8:	1c07c83a 	sub	r3,r3,r16
   81bcc:	d8c12e15 	stw	r3,1208(sp)
   81bd0:	003cbe06 	br	80ecc <___vfprintf_internal_r+0x590>
   81bd4:	d9012c17 	ldw	r4,1200(sp)
   81bd8:	980b883a 	mov	r5,r19
   81bdc:	d9811e04 	addi	r6,sp,1144
   81be0:	0087e380 	call	87e38 <__sprint_r>
   81be4:	103c711e 	bne	r2,zero,80dac <___vfprintf_internal_r+0x470>
   81be8:	d8c12017 	ldw	r3,1152(sp)
   81bec:	da000404 	addi	r8,sp,16
   81bf0:	003d5306 	br	81140 <___vfprintf_internal_r+0x804>
   81bf4:	d9012c17 	ldw	r4,1200(sp)
   81bf8:	980b883a 	mov	r5,r19
   81bfc:	d9811e04 	addi	r6,sp,1144
   81c00:	0087e380 	call	87e38 <__sprint_r>
   81c04:	103c691e 	bne	r2,zero,80dac <___vfprintf_internal_r+0x470>
   81c08:	d8c12017 	ldw	r3,1152(sp)
   81c0c:	da000404 	addi	r8,sp,16
   81c10:	003d0a06 	br	8103c <___vfprintf_internal_r+0x700>
   81c14:	d9012c17 	ldw	r4,1200(sp)
   81c18:	980b883a 	mov	r5,r19
   81c1c:	d9811e04 	addi	r6,sp,1144
   81c20:	0087e380 	call	87e38 <__sprint_r>
   81c24:	103c611e 	bne	r2,zero,80dac <___vfprintf_internal_r+0x470>
   81c28:	d8c12017 	ldw	r3,1152(sp)
   81c2c:	da000404 	addi	r8,sp,16
   81c30:	003d1006 	br	81074 <___vfprintf_internal_r+0x738>
   81c34:	b000021e 	bne	r22,zero,81c40 <___vfprintf_internal_r+0x1304>
   81c38:	00800244 	movi	r2,9
   81c3c:	15401c2e 	bgeu	r2,r21,81cb0 <___vfprintf_internal_r+0x1374>
   81c40:	dc412b15 	stw	r17,1196(sp)
   81c44:	d8810dc4 	addi	r2,sp,1079
   81c48:	b023883a 	mov	r17,r22
   81c4c:	402d883a 	mov	r22,r8
   81c50:	a809883a 	mov	r4,r21
   81c54:	880b883a 	mov	r5,r17
   81c58:	01800284 	movi	r6,10
   81c5c:	000f883a 	mov	r7,zero
   81c60:	1021883a 	mov	r16,r2
   81c64:	008a3300 	call	8a330 <__umoddi3>
   81c68:	10800c04 	addi	r2,r2,48
   81c6c:	a809883a 	mov	r4,r21
   81c70:	880b883a 	mov	r5,r17
   81c74:	80800005 	stb	r2,0(r16)
   81c78:	01800284 	movi	r6,10
   81c7c:	000f883a 	mov	r7,zero
   81c80:	0089cdc0 	call	89cdc <__udivdi3>
   81c84:	1823883a 	mov	r17,r3
   81c88:	10c6b03a 	or	r3,r2,r3
   81c8c:	102b883a 	mov	r21,r2
   81c90:	80bfffc4 	addi	r2,r16,-1
   81c94:	183fee1e 	bne	r3,zero,81c50 <___vfprintf_internal_r+0x1314>
   81c98:	d8c12917 	ldw	r3,1188(sp)
   81c9c:	b011883a 	mov	r8,r22
   81ca0:	dc412b17 	ldw	r17,1196(sp)
   81ca4:	1c07c83a 	sub	r3,r3,r16
   81ca8:	d8c12e15 	stw	r3,1208(sp)
   81cac:	003c8706 	br	80ecc <___vfprintf_internal_r+0x590>
   81cb0:	d9013d17 	ldw	r4,1268(sp)
   81cb4:	ad400c04 	addi	r21,r21,48
   81cb8:	dd410dc5 	stb	r21,1079(sp)
   81cbc:	d9012e15 	stw	r4,1208(sp)
   81cc0:	dc010dc4 	addi	r16,sp,1079
   81cc4:	003c8106 	br	80ecc <___vfprintf_internal_r+0x590>
   81cc8:	d8012e15 	stw	zero,1208(sp)
   81ccc:	dc010e04 	addi	r16,sp,1080
   81cd0:	003c7e06 	br	80ecc <___vfprintf_internal_r+0x590>
   81cd4:	d8812617 	ldw	r2,1176(sp)
   81cd8:	0081940e 	bge	zero,r2,8232c <___vfprintf_internal_r+0x19f0>
   81cdc:	d9413517 	ldw	r5,1236(sp)
   81ce0:	d8813317 	ldw	r2,1228(sp)
   81ce4:	8165883a 	add	r18,r16,r5
   81ce8:	9429c83a 	sub	r20,r18,r16
   81cec:	1500010e 	bge	r2,r20,81cf4 <___vfprintf_internal_r+0x13b8>
   81cf0:	1029883a 	mov	r20,r2
   81cf4:	05000a0e 	bge	zero,r20,81d20 <___vfprintf_internal_r+0x13e4>
   81cf8:	d8811f17 	ldw	r2,1148(sp)
   81cfc:	1d07883a 	add	r3,r3,r20
   81d00:	44000015 	stw	r16,0(r8)
   81d04:	10800044 	addi	r2,r2,1
   81d08:	45000115 	stw	r20,4(r8)
   81d0c:	d8c12015 	stw	r3,1152(sp)
   81d10:	d8811f15 	stw	r2,1148(sp)
   81d14:	010001c4 	movi	r4,7
   81d18:	20822b16 	blt	r4,r2,825c8 <___vfprintf_internal_r+0x1c8c>
   81d1c:	42000204 	addi	r8,r8,8
   81d20:	a0022716 	blt	r20,zero,825c0 <___vfprintf_internal_r+0x1c84>
   81d24:	d9013317 	ldw	r4,1228(sp)
   81d28:	2529c83a 	sub	r20,r4,r20
   81d2c:	0500530e 	bge	zero,r20,81e7c <___vfprintf_internal_r+0x1540>
   81d30:	05800404 	movi	r22,16
   81d34:	d8811f17 	ldw	r2,1148(sp)
   81d38:	05400274 	movhi	r21,9
   81d3c:	ad7f0c84 	addi	r21,r21,-974
   81d40:	b501680e 	bge	r22,r20,822e4 <___vfprintf_internal_r+0x19a8>
   81d44:	8809883a 	mov	r4,r17
   81d48:	dc012e15 	stw	r16,1208(sp)
   81d4c:	a023883a 	mov	r17,r20
   81d50:	070001c4 	movi	fp,7
   81d54:	dc012c17 	ldw	r16,1200(sp)
   81d58:	2029883a 	mov	r20,r4
   81d5c:	00000306 	br	81d6c <___vfprintf_internal_r+0x1430>
   81d60:	42000204 	addi	r8,r8,8
   81d64:	8c7ffc04 	addi	r17,r17,-16
   81d68:	b4415a0e 	bge	r22,r17,822d4 <___vfprintf_internal_r+0x1998>
   81d6c:	18c00404 	addi	r3,r3,16
   81d70:	10800044 	addi	r2,r2,1
   81d74:	45c00015 	stw	r23,0(r8)
   81d78:	45800115 	stw	r22,4(r8)
   81d7c:	d8c12015 	stw	r3,1152(sp)
   81d80:	d8811f15 	stw	r2,1148(sp)
   81d84:	e0bff60e 	bge	fp,r2,81d60 <___vfprintf_internal_r+0x1424>
   81d88:	8009883a 	mov	r4,r16
   81d8c:	980b883a 	mov	r5,r19
   81d90:	d9811e04 	addi	r6,sp,1144
   81d94:	0087e380 	call	87e38 <__sprint_r>
   81d98:	103c041e 	bne	r2,zero,80dac <___vfprintf_internal_r+0x470>
   81d9c:	d8c12017 	ldw	r3,1152(sp)
   81da0:	d8811f17 	ldw	r2,1148(sp)
   81da4:	da000404 	addi	r8,sp,16
   81da8:	003fee06 	br	81d64 <___vfprintf_internal_r+0x1428>
   81dac:	d9012c17 	ldw	r4,1200(sp)
   81db0:	980b883a 	mov	r5,r19
   81db4:	d9811e04 	addi	r6,sp,1144
   81db8:	0087e380 	call	87e38 <__sprint_r>
   81dbc:	103bfb1e 	bne	r2,zero,80dac <___vfprintf_internal_r+0x470>
   81dc0:	d8c12017 	ldw	r3,1152(sp)
   81dc4:	d8812787 	ldb	r2,1182(sp)
   81dc8:	da000404 	addi	r8,sp,16
   81dcc:	003c8e06 	br	81008 <___vfprintf_internal_r+0x6cc>
   81dd0:	d9413517 	ldw	r5,1236(sp)
   81dd4:	2c3fffc4 	addi	r16,r5,-1
   81dd8:	043f3c0e 	bge	zero,r16,81acc <___vfprintf_internal_r+0x1190>
   81ddc:	07000404 	movi	fp,16
   81de0:	05400274 	movhi	r21,9
   81de4:	ad7f0c84 	addi	r21,r21,-974
   81de8:	e4007c0e 	bge	fp,r16,81fdc <___vfprintf_internal_r+0x16a0>
   81dec:	dc412e15 	stw	r17,1208(sp)
   81df0:	00c001c4 	movi	r3,7
   81df4:	8023883a 	mov	r17,r16
   81df8:	dc012c17 	ldw	r16,1200(sp)
   81dfc:	00000306 	br	81e0c <___vfprintf_internal_r+0x14d0>
   81e00:	a5000204 	addi	r20,r20,8
   81e04:	8c7ffc04 	addi	r17,r17,-16
   81e08:	e440720e 	bge	fp,r17,81fd4 <___vfprintf_internal_r+0x1698>
   81e0c:	b5800404 	addi	r22,r22,16
   81e10:	94800044 	addi	r18,r18,1
   81e14:	a5c00015 	stw	r23,0(r20)
   81e18:	a7000115 	stw	fp,4(r20)
   81e1c:	dd812015 	stw	r22,1152(sp)
   81e20:	dc811f15 	stw	r18,1148(sp)
   81e24:	1cbff60e 	bge	r3,r18,81e00 <___vfprintf_internal_r+0x14c4>
   81e28:	8009883a 	mov	r4,r16
   81e2c:	980b883a 	mov	r5,r19
   81e30:	d9811e04 	addi	r6,sp,1144
   81e34:	d8c13e15 	stw	r3,1272(sp)
   81e38:	0087e380 	call	87e38 <__sprint_r>
   81e3c:	d8c13e17 	ldw	r3,1272(sp)
   81e40:	103bda1e 	bne	r2,zero,80dac <___vfprintf_internal_r+0x470>
   81e44:	dd812017 	ldw	r22,1152(sp)
   81e48:	dc811f17 	ldw	r18,1148(sp)
   81e4c:	dd000404 	addi	r20,sp,16
   81e50:	003fec06 	br	81e04 <___vfprintf_internal_r+0x14c8>
   81e54:	00c00084 	movi	r3,2
   81e58:	ad84b03a 	or	r2,r21,r22
   81e5c:	003d5c06 	br	813d0 <___vfprintf_internal_r+0xa94>
   81e60:	d9012c17 	ldw	r4,1200(sp)
   81e64:	980b883a 	mov	r5,r19
   81e68:	d9811e04 	addi	r6,sp,1144
   81e6c:	0087e380 	call	87e38 <__sprint_r>
   81e70:	103bce1e 	bne	r2,zero,80dac <___vfprintf_internal_r+0x470>
   81e74:	d8c12017 	ldw	r3,1152(sp)
   81e78:	da000404 	addi	r8,sp,16
   81e7c:	d9413317 	ldw	r5,1228(sp)
   81e80:	d8812617 	ldw	r2,1176(sp)
   81e84:	d9013517 	ldw	r4,1236(sp)
   81e88:	8161883a 	add	r16,r16,r5
   81e8c:	11000316 	blt	r2,r4,81e9c <___vfprintf_internal_r+0x1560>
   81e90:	d9412a17 	ldw	r5,1192(sp)
   81e94:	2900004c 	andi	r4,r5,1
   81e98:	20000d26 	beq	r4,zero,81ed0 <___vfprintf_internal_r+0x1594>
   81e9c:	d9013817 	ldw	r4,1248(sp)
   81ea0:	d9413417 	ldw	r5,1232(sp)
   81ea4:	1907883a 	add	r3,r3,r4
   81ea8:	d9011f17 	ldw	r4,1148(sp)
   81eac:	41400015 	stw	r5,0(r8)
   81eb0:	d9413817 	ldw	r5,1248(sp)
   81eb4:	21000044 	addi	r4,r4,1
   81eb8:	d8c12015 	stw	r3,1152(sp)
   81ebc:	41400115 	stw	r5,4(r8)
   81ec0:	d9011f15 	stw	r4,1148(sp)
   81ec4:	014001c4 	movi	r5,7
   81ec8:	2901c716 	blt	r5,r4,825e8 <___vfprintf_internal_r+0x1cac>
   81ecc:	42000204 	addi	r8,r8,8
   81ed0:	d9013517 	ldw	r4,1236(sp)
   81ed4:	9425c83a 	sub	r18,r18,r16
   81ed8:	2085c83a 	sub	r2,r4,r2
   81edc:	1029883a 	mov	r20,r2
   81ee0:	9080010e 	bge	r18,r2,81ee8 <___vfprintf_internal_r+0x15ac>
   81ee4:	9029883a 	mov	r20,r18
   81ee8:	05000a0e 	bge	zero,r20,81f14 <___vfprintf_internal_r+0x15d8>
   81eec:	d9011f17 	ldw	r4,1148(sp)
   81ef0:	1d07883a 	add	r3,r3,r20
   81ef4:	44000015 	stw	r16,0(r8)
   81ef8:	21000044 	addi	r4,r4,1
   81efc:	45000115 	stw	r20,4(r8)
   81f00:	d8c12015 	stw	r3,1152(sp)
   81f04:	d9011f15 	stw	r4,1148(sp)
   81f08:	014001c4 	movi	r5,7
   81f0c:	2901dd16 	blt	r5,r4,82684 <___vfprintf_internal_r+0x1d48>
   81f10:	42000204 	addi	r8,r8,8
   81f14:	a001d916 	blt	r20,zero,8267c <___vfprintf_internal_r+0x1d40>
   81f18:	1521c83a 	sub	r16,r2,r20
   81f1c:	043c970e 	bge	zero,r16,8117c <___vfprintf_internal_r+0x840>
   81f20:	04800404 	movi	r18,16
   81f24:	d8811f17 	ldw	r2,1148(sp)
   81f28:	05400274 	movhi	r21,9
   81f2c:	ad7f0c84 	addi	r21,r21,-974
   81f30:	943e140e 	bge	r18,r16,81784 <___vfprintf_internal_r+0xe48>
   81f34:	050001c4 	movi	r20,7
   81f38:	dd812c17 	ldw	r22,1200(sp)
   81f3c:	00000306 	br	81f4c <___vfprintf_internal_r+0x1610>
   81f40:	42000204 	addi	r8,r8,8
   81f44:	843ffc04 	addi	r16,r16,-16
   81f48:	943e0e0e 	bge	r18,r16,81784 <___vfprintf_internal_r+0xe48>
   81f4c:	18c00404 	addi	r3,r3,16
   81f50:	10800044 	addi	r2,r2,1
   81f54:	45c00015 	stw	r23,0(r8)
   81f58:	44800115 	stw	r18,4(r8)
   81f5c:	d8c12015 	stw	r3,1152(sp)
   81f60:	d8811f15 	stw	r2,1148(sp)
   81f64:	a0bff60e 	bge	r20,r2,81f40 <___vfprintf_internal_r+0x1604>
   81f68:	b009883a 	mov	r4,r22
   81f6c:	980b883a 	mov	r5,r19
   81f70:	d9811e04 	addi	r6,sp,1144
   81f74:	0087e380 	call	87e38 <__sprint_r>
   81f78:	103b8c1e 	bne	r2,zero,80dac <___vfprintf_internal_r+0x470>
   81f7c:	d8c12017 	ldw	r3,1152(sp)
   81f80:	d8811f17 	ldw	r2,1148(sp)
   81f84:	da000404 	addi	r8,sp,16
   81f88:	003fee06 	br	81f44 <___vfprintf_internal_r+0x1608>
   81f8c:	d9012c17 	ldw	r4,1200(sp)
   81f90:	980b883a 	mov	r5,r19
   81f94:	d9811e04 	addi	r6,sp,1144
   81f98:	0087e380 	call	87e38 <__sprint_r>
   81f9c:	103b831e 	bne	r2,zero,80dac <___vfprintf_internal_r+0x470>
   81fa0:	d8c12017 	ldw	r3,1152(sp)
   81fa4:	dc811f17 	ldw	r18,1148(sp)
   81fa8:	da000404 	addi	r8,sp,16
   81fac:	003eaa06 	br	81a58 <___vfprintf_internal_r+0x111c>
   81fb0:	d9012c17 	ldw	r4,1200(sp)
   81fb4:	980b883a 	mov	r5,r19
   81fb8:	d9811e04 	addi	r6,sp,1144
   81fbc:	0087e380 	call	87e38 <__sprint_r>
   81fc0:	103b7a1e 	bne	r2,zero,80dac <___vfprintf_internal_r+0x470>
   81fc4:	dd812017 	ldw	r22,1152(sp)
   81fc8:	dc811f17 	ldw	r18,1148(sp)
   81fcc:	dd000404 	addi	r20,sp,16
   81fd0:	003eac06 	br	81a84 <___vfprintf_internal_r+0x1148>
   81fd4:	8821883a 	mov	r16,r17
   81fd8:	dc412e17 	ldw	r17,1208(sp)
   81fdc:	b42d883a 	add	r22,r22,r16
   81fe0:	94800044 	addi	r18,r18,1
   81fe4:	a5400015 	stw	r21,0(r20)
   81fe8:	a4000115 	stw	r16,4(r20)
   81fec:	dd812015 	stw	r22,1152(sp)
   81ff0:	dc811f15 	stw	r18,1148(sp)
   81ff4:	008001c4 	movi	r2,7
   81ff8:	14beb30e 	bge	r2,r18,81ac8 <___vfprintf_internal_r+0x118c>
   81ffc:	003ecb06 	br	81b2c <___vfprintf_internal_r+0x11f0>
   82000:	d9012c17 	ldw	r4,1200(sp)
   82004:	980b883a 	mov	r5,r19
   82008:	d9811e04 	addi	r6,sp,1144
   8200c:	0087e380 	call	87e38 <__sprint_r>
   82010:	103b661e 	bne	r2,zero,80dac <___vfprintf_internal_r+0x470>
   82014:	d8c12017 	ldw	r3,1152(sp)
   82018:	da000404 	addi	r8,sp,16
   8201c:	003c1806 	br	81080 <___vfprintf_internal_r+0x744>
   82020:	056bc83a 	sub	r21,zero,r21
   82024:	a804c03a 	cmpne	r2,r21,zero
   82028:	05adc83a 	sub	r22,zero,r22
   8202c:	07000b44 	movi	fp,45
   82030:	b0adc83a 	sub	r22,r22,r2
   82034:	df012785 	stb	fp,1182(sp)
   82038:	00c00044 	movi	r3,1
   8203c:	ad84b03a 	or	r2,r21,r22
   82040:	003b9106 	br	80e88 <___vfprintf_internal_r+0x54c>
   82044:	da013f15 	stw	r8,1276(sp)
   82048:	0087a900 	call	87a90 <__fpclassifyd>
   8204c:	da013f17 	ldw	r8,1276(sp)
   82050:	1000f226 	beq	r2,zero,8241c <___vfprintf_internal_r+0x1ae0>
   82054:	05bff7c4 	movi	r22,-33
   82058:	00bfffc4 	movi	r2,-1
   8205c:	95ac703a 	and	r22,r18,r22
   82060:	a0820b26 	beq	r20,r2,82890 <___vfprintf_internal_r+0x1f54>
   82064:	008011c4 	movi	r2,71
   82068:	b081fc26 	beq	r22,r2,8285c <___vfprintf_internal_r+0x1f20>
   8206c:	d8c12a17 	ldw	r3,1192(sp)
   82070:	d9013917 	ldw	r4,1252(sp)
   82074:	18c04014 	ori	r3,r3,256
   82078:	d8c12d15 	stw	r3,1204(sp)
   8207c:	20020616 	blt	r4,zero,82898 <___vfprintf_internal_r+0x1f5c>
   82080:	dd413917 	ldw	r21,1252(sp)
   82084:	d8012b05 	stb	zero,1196(sp)
   82088:	00801984 	movi	r2,102
   8208c:	9081a526 	beq	r18,r2,82724 <___vfprintf_internal_r+0x1de8>
   82090:	00801184 	movi	r2,70
   82094:	9081a326 	beq	r18,r2,82724 <___vfprintf_internal_r+0x1de8>
   82098:	00801144 	movi	r2,69
   8209c:	b0820226 	beq	r22,r2,828a8 <___vfprintf_internal_r+0x1f6c>
   820a0:	a039883a 	mov	fp,r20
   820a4:	d8812604 	addi	r2,sp,1176
   820a8:	d8800115 	stw	r2,4(sp)
   820ac:	d9012c17 	ldw	r4,1200(sp)
   820b0:	d8812504 	addi	r2,sp,1172
   820b4:	d9413717 	ldw	r5,1244(sp)
   820b8:	d8800215 	stw	r2,8(sp)
   820bc:	d8812104 	addi	r2,sp,1156
   820c0:	df000015 	stw	fp,0(sp)
   820c4:	d8800315 	stw	r2,12(sp)
   820c8:	a80d883a 	mov	r6,r21
   820cc:	01c00084 	movi	r7,2
   820d0:	da013f15 	stw	r8,1276(sp)
   820d4:	0082e140 	call	82e14 <_dtoa_r>
   820d8:	1021883a 	mov	r16,r2
   820dc:	008019c4 	movi	r2,103
   820e0:	da013f17 	ldw	r8,1276(sp)
   820e4:	90800226 	beq	r18,r2,820f0 <___vfprintf_internal_r+0x17b4>
   820e8:	008011c4 	movi	r2,71
   820ec:	9080031e 	bne	r18,r2,820fc <___vfprintf_internal_r+0x17c0>
   820f0:	d9012a17 	ldw	r4,1192(sp)
   820f4:	2080004c 	andi	r2,r4,1
   820f8:	1001fe26 	beq	r2,zero,828f4 <___vfprintf_internal_r+0x1fb8>
   820fc:	00801184 	movi	r2,70
   82100:	8713883a 	add	r9,r16,fp
   82104:	b0819f26 	beq	r22,r2,82784 <___vfprintf_internal_r+0x1e48>
   82108:	d9013717 	ldw	r4,1244(sp)
   8210c:	a80b883a 	mov	r5,r21
   82110:	000d883a 	mov	r6,zero
   82114:	000f883a 	mov	r7,zero
   82118:	da013f15 	stw	r8,1276(sp)
   8211c:	da413e15 	stw	r9,1272(sp)
   82120:	008bcb80 	call	8bcb8 <__eqdf2>
   82124:	da013f17 	ldw	r8,1276(sp)
   82128:	da413e17 	ldw	r9,1272(sp)
   8212c:	10017b26 	beq	r2,zero,8271c <___vfprintf_internal_r+0x1de0>
   82130:	d8812117 	ldw	r2,1156(sp)
   82134:	1240062e 	bgeu	r2,r9,82150 <___vfprintf_internal_r+0x1814>
   82138:	01000c04 	movi	r4,48
   8213c:	10c00044 	addi	r3,r2,1
   82140:	d8c12115 	stw	r3,1156(sp)
   82144:	11000005 	stb	r4,0(r2)
   82148:	d8812117 	ldw	r2,1156(sp)
   8214c:	127ffb36 	bltu	r2,r9,8213c <___vfprintf_internal_r+0x1800>
   82150:	1405c83a 	sub	r2,r2,r16
   82154:	d8813515 	stw	r2,1236(sp)
   82158:	008011c4 	movi	r2,71
   8215c:	b0816926 	beq	r22,r2,82704 <___vfprintf_internal_r+0x1dc8>
   82160:	00801944 	movi	r2,101
   82164:	14823f0e 	bge	r2,r18,82a64 <___vfprintf_internal_r+0x2128>
   82168:	d8c12617 	ldw	r3,1176(sp)
   8216c:	00801984 	movi	r2,102
   82170:	d8c13315 	stw	r3,1228(sp)
   82174:	9081e126 	beq	r18,r2,828fc <___vfprintf_internal_r+0x1fc0>
   82178:	d8c13317 	ldw	r3,1228(sp)
   8217c:	d9013517 	ldw	r4,1236(sp)
   82180:	1901cb16 	blt	r3,r4,828b0 <___vfprintf_internal_r+0x1f74>
   82184:	d9412a17 	ldw	r5,1192(sp)
   82188:	2880004c 	andi	r2,r5,1
   8218c:	1001d11e 	bne	r2,zero,828d4 <___vfprintf_internal_r+0x1f98>
   82190:	1805883a 	mov	r2,r3
   82194:	18023116 	blt	r3,zero,82a5c <___vfprintf_internal_r+0x2120>
   82198:	d8c13317 	ldw	r3,1228(sp)
   8219c:	048019c4 	movi	r18,103
   821a0:	d8c12e15 	stw	r3,1208(sp)
   821a4:	df012b07 	ldb	fp,1196(sp)
   821a8:	e0014e1e 	bne	fp,zero,826e4 <___vfprintf_internal_r+0x1da8>
   821ac:	d8c12d17 	ldw	r3,1204(sp)
   821b0:	df012783 	ldbu	fp,1182(sp)
   821b4:	d8812b15 	stw	r2,1196(sp)
   821b8:	d8c12a15 	stw	r3,1192(sp)
   821bc:	0029883a 	mov	r20,zero
   821c0:	003b4706 	br	80ee0 <___vfprintf_internal_r+0x5a4>
   821c4:	d8c12f17 	ldw	r3,1212(sp)
   821c8:	d9012f17 	ldw	r4,1212(sp)
   821cc:	d9412f17 	ldw	r5,1212(sp)
   821d0:	18c00017 	ldw	r3,0(r3)
   821d4:	21000117 	ldw	r4,4(r4)
   821d8:	29400204 	addi	r5,r5,8
   821dc:	d8c13715 	stw	r3,1244(sp)
   821e0:	d9013915 	stw	r4,1252(sp)
   821e4:	d9412f15 	stw	r5,1212(sp)
   821e8:	003c3606 	br	812c4 <___vfprintf_internal_r+0x988>
   821ec:	d9412a17 	ldw	r5,1192(sp)
   821f0:	2880100c 	andi	r2,r5,64
   821f4:	1000b026 	beq	r2,zero,824b8 <___vfprintf_internal_r+0x1b7c>
   821f8:	d8812f17 	ldw	r2,1212(sp)
   821fc:	002d883a 	mov	r22,zero
   82200:	00c00044 	movi	r3,1
   82204:	1540000b 	ldhu	r21,0(r2)
   82208:	10800104 	addi	r2,r2,4
   8220c:	d8812f15 	stw	r2,1212(sp)
   82210:	a805883a 	mov	r2,r21
   82214:	003c6e06 	br	813d0 <___vfprintf_internal_r+0xa94>
   82218:	00c00084 	movi	r3,2
   8221c:	003c6c06 	br	813d0 <___vfprintf_internal_r+0xa94>
   82220:	d9412a17 	ldw	r5,1192(sp)
   82224:	2880100c 	andi	r2,r5,64
   82228:	10009b26 	beq	r2,zero,82498 <___vfprintf_internal_r+0x1b5c>
   8222c:	d8812f17 	ldw	r2,1212(sp)
   82230:	002d883a 	mov	r22,zero
   82234:	0007883a 	mov	r3,zero
   82238:	1540000b 	ldhu	r21,0(r2)
   8223c:	10800104 	addi	r2,r2,4
   82240:	d8812f15 	stw	r2,1212(sp)
   82244:	a805883a 	mov	r2,r21
   82248:	003c6106 	br	813d0 <___vfprintf_internal_r+0xa94>
   8224c:	8c800007 	ldb	r18,0(r17)
   82250:	003a1f06 	br	80ad0 <___vfprintf_internal_r+0x194>
   82254:	d9412a17 	ldw	r5,1192(sp)
   82258:	2880100c 	andi	r2,r5,64
   8225c:	10009e26 	beq	r2,zero,824d8 <___vfprintf_internal_r+0x1b9c>
   82260:	d8812f17 	ldw	r2,1212(sp)
   82264:	002d883a 	mov	r22,zero
   82268:	1540000b 	ldhu	r21,0(r2)
   8226c:	10800104 	addi	r2,r2,4
   82270:	d8812f15 	stw	r2,1212(sp)
   82274:	003c9506 	br	814cc <___vfprintf_internal_r+0xb90>
   82278:	d9412a17 	ldw	r5,1192(sp)
   8227c:	2880040c 	andi	r2,r5,16
   82280:	10007e1e 	bne	r2,zero,8247c <___vfprintf_internal_r+0x1b40>
   82284:	d9412a17 	ldw	r5,1192(sp)
   82288:	2880100c 	andi	r2,r5,64
   8228c:	10010826 	beq	r2,zero,826b0 <___vfprintf_internal_r+0x1d74>
   82290:	d8c12f17 	ldw	r3,1212(sp)
   82294:	d9013117 	ldw	r4,1220(sp)
   82298:	18800017 	ldw	r2,0(r3)
   8229c:	18c00104 	addi	r3,r3,4
   822a0:	d8c12f15 	stw	r3,1212(sp)
   822a4:	1100000d 	sth	r4,0(r2)
   822a8:	0039e206 	br	80a34 <___vfprintf_internal_r+0xf8>
   822ac:	d8c12a17 	ldw	r3,1192(sp)
   822b0:	1880100c 	andi	r2,r3,64
   822b4:	10006a26 	beq	r2,zero,82460 <___vfprintf_internal_r+0x1b24>
   822b8:	d9012f17 	ldw	r4,1212(sp)
   822bc:	2540000f 	ldh	r21,0(r4)
   822c0:	21000104 	addi	r4,r4,4
   822c4:	d9012f15 	stw	r4,1212(sp)
   822c8:	a82dd7fa 	srai	r22,r21,31
   822cc:	b005883a 	mov	r2,r22
   822d0:	003ae906 	br	80e78 <___vfprintf_internal_r+0x53c>
   822d4:	dc012e17 	ldw	r16,1208(sp)
   822d8:	a009883a 	mov	r4,r20
   822dc:	8829883a 	mov	r20,r17
   822e0:	2023883a 	mov	r17,r4
   822e4:	1d07883a 	add	r3,r3,r20
   822e8:	10800044 	addi	r2,r2,1
   822ec:	45400015 	stw	r21,0(r8)
   822f0:	45000115 	stw	r20,4(r8)
   822f4:	d8c12015 	stw	r3,1152(sp)
   822f8:	d8811f15 	stw	r2,1148(sp)
   822fc:	010001c4 	movi	r4,7
   82300:	20bed716 	blt	r4,r2,81e60 <___vfprintf_internal_r+0x1524>
   82304:	42000204 	addi	r8,r8,8
   82308:	003edc06 	br	81e7c <___vfprintf_internal_r+0x1540>
   8230c:	d9012c17 	ldw	r4,1200(sp)
   82310:	980b883a 	mov	r5,r19
   82314:	d9811e04 	addi	r6,sp,1144
   82318:	0087e380 	call	87e38 <__sprint_r>
   8231c:	103aa31e 	bne	r2,zero,80dac <___vfprintf_internal_r+0x470>
   82320:	d8c12017 	ldw	r3,1152(sp)
   82324:	da000404 	addi	r8,sp,16
   82328:	003d5606 	br	81884 <___vfprintf_internal_r+0xf48>
   8232c:	d9011f17 	ldw	r4,1148(sp)
   82330:	01400274 	movhi	r5,9
   82334:	297f0c04 	addi	r5,r5,-976
   82338:	18c00044 	addi	r3,r3,1
   8233c:	21000044 	addi	r4,r4,1
   82340:	41400015 	stw	r5,0(r8)
   82344:	01400044 	movi	r5,1
   82348:	41400115 	stw	r5,4(r8)
   8234c:	d8c12015 	stw	r3,1152(sp)
   82350:	d9011f15 	stw	r4,1148(sp)
   82354:	014001c4 	movi	r5,7
   82358:	29006a16 	blt	r5,r4,82504 <___vfprintf_internal_r+0x1bc8>
   8235c:	42000204 	addi	r8,r8,8
   82360:	1025883a 	mov	r18,r2
   82364:	9000051e 	bne	r18,zero,8237c <___vfprintf_internal_r+0x1a40>
   82368:	d8813517 	ldw	r2,1236(sp)
   8236c:	1000031e 	bne	r2,zero,8237c <___vfprintf_internal_r+0x1a40>
   82370:	d9012a17 	ldw	r4,1192(sp)
   82374:	2080004c 	andi	r2,r4,1
   82378:	103b8026 	beq	r2,zero,8117c <___vfprintf_internal_r+0x840>
   8237c:	d8813417 	ldw	r2,1232(sp)
   82380:	d9413817 	ldw	r5,1248(sp)
   82384:	010001c4 	movi	r4,7
   82388:	40800015 	stw	r2,0(r8)
   8238c:	d8811f17 	ldw	r2,1148(sp)
   82390:	1947883a 	add	r3,r3,r5
   82394:	41400115 	stw	r5,4(r8)
   82398:	10800044 	addi	r2,r2,1
   8239c:	d8c12015 	stw	r3,1152(sp)
   823a0:	d8811f15 	stw	r2,1148(sp)
   823a4:	20813016 	blt	r4,r2,82868 <___vfprintf_internal_r+0x1f2c>
   823a8:	42000204 	addi	r8,r8,8
   823ac:	04a5c83a 	sub	r18,zero,r18
   823b0:	04807a0e 	bge	zero,r18,8259c <___vfprintf_internal_r+0x1c60>
   823b4:	05000404 	movi	r20,16
   823b8:	05400274 	movhi	r21,9
   823bc:	ad7f0c84 	addi	r21,r21,-974
   823c0:	a480920e 	bge	r20,r18,8260c <___vfprintf_internal_r+0x1cd0>
   823c4:	058001c4 	movi	r22,7
   823c8:	df012c17 	ldw	fp,1200(sp)
   823cc:	00000306 	br	823dc <___vfprintf_internal_r+0x1aa0>
   823d0:	42000204 	addi	r8,r8,8
   823d4:	94bffc04 	addi	r18,r18,-16
   823d8:	a4808c0e 	bge	r20,r18,8260c <___vfprintf_internal_r+0x1cd0>
   823dc:	18c00404 	addi	r3,r3,16
   823e0:	10800044 	addi	r2,r2,1
   823e4:	45c00015 	stw	r23,0(r8)
   823e8:	45000115 	stw	r20,4(r8)
   823ec:	d8c12015 	stw	r3,1152(sp)
   823f0:	d8811f15 	stw	r2,1148(sp)
   823f4:	b0bff60e 	bge	r22,r2,823d0 <___vfprintf_internal_r+0x1a94>
   823f8:	e009883a 	mov	r4,fp
   823fc:	980b883a 	mov	r5,r19
   82400:	d9811e04 	addi	r6,sp,1144
   82404:	0087e380 	call	87e38 <__sprint_r>
   82408:	103a681e 	bne	r2,zero,80dac <___vfprintf_internal_r+0x470>
   8240c:	d8c12017 	ldw	r3,1152(sp)
   82410:	d8811f17 	ldw	r2,1148(sp)
   82414:	da000404 	addi	r8,sp,16
   82418:	003fee06 	br	823d4 <___vfprintf_internal_r+0x1a98>
   8241c:	008011c4 	movi	r2,71
   82420:	1480ad16 	blt	r2,r18,826d8 <___vfprintf_internal_r+0x1d9c>
   82424:	04000274 	movhi	r16,9
   82428:	843efe04 	addi	r16,r16,-1032
   8242c:	d9012a17 	ldw	r4,1192(sp)
   82430:	00bfdfc4 	movi	r2,-129
   82434:	00c000c4 	movi	r3,3
   82438:	2088703a 	and	r4,r4,r2
   8243c:	d8c12b15 	stw	r3,1196(sp)
   82440:	d9012a15 	stw	r4,1192(sp)
   82444:	df012783 	ldbu	fp,1182(sp)
   82448:	d8c12e15 	stw	r3,1208(sp)
   8244c:	0029883a 	mov	r20,zero
   82450:	d8013315 	stw	zero,1228(sp)
   82454:	003aa206 	br	80ee0 <___vfprintf_internal_r+0x5a4>
   82458:	dd012e15 	stw	r20,1208(sp)
   8245c:	003c8206 	br	81668 <___vfprintf_internal_r+0xd2c>
   82460:	d9412f17 	ldw	r5,1212(sp)
   82464:	2d400017 	ldw	r21,0(r5)
   82468:	29400104 	addi	r5,r5,4
   8246c:	d9412f15 	stw	r5,1212(sp)
   82470:	a82dd7fa 	srai	r22,r21,31
   82474:	b005883a 	mov	r2,r22
   82478:	003a7f06 	br	80e78 <___vfprintf_internal_r+0x53c>
   8247c:	d8c12f17 	ldw	r3,1212(sp)
   82480:	d9013117 	ldw	r4,1220(sp)
   82484:	18800017 	ldw	r2,0(r3)
   82488:	18c00104 	addi	r3,r3,4
   8248c:	d8c12f15 	stw	r3,1212(sp)
   82490:	11000015 	stw	r4,0(r2)
   82494:	00396706 	br	80a34 <___vfprintf_internal_r+0xf8>
   82498:	d8c12f17 	ldw	r3,1212(sp)
   8249c:	002d883a 	mov	r22,zero
   824a0:	1d400017 	ldw	r21,0(r3)
   824a4:	18c00104 	addi	r3,r3,4
   824a8:	d8c12f15 	stw	r3,1212(sp)
   824ac:	a805883a 	mov	r2,r21
   824b0:	0007883a 	mov	r3,zero
   824b4:	003bc606 	br	813d0 <___vfprintf_internal_r+0xa94>
   824b8:	d8c12f17 	ldw	r3,1212(sp)
   824bc:	002d883a 	mov	r22,zero
   824c0:	1d400017 	ldw	r21,0(r3)
   824c4:	18c00104 	addi	r3,r3,4
   824c8:	d8c12f15 	stw	r3,1212(sp)
   824cc:	a805883a 	mov	r2,r21
   824d0:	00c00044 	movi	r3,1
   824d4:	003bbe06 	br	813d0 <___vfprintf_internal_r+0xa94>
   824d8:	d8c12f17 	ldw	r3,1212(sp)
   824dc:	002d883a 	mov	r22,zero
   824e0:	1d400017 	ldw	r21,0(r3)
   824e4:	18c00104 	addi	r3,r3,4
   824e8:	d8c12f15 	stw	r3,1212(sp)
   824ec:	003bf706 	br	814cc <___vfprintf_internal_r+0xb90>
   824f0:	04000274 	movhi	r16,9
   824f4:	843efc04 	addi	r16,r16,-1040
   824f8:	003b8506 	br	81310 <___vfprintf_internal_r+0x9d4>
   824fc:	45000204 	addi	r20,r8,8
   82500:	003d7206 	br	81acc <___vfprintf_internal_r+0x1190>
   82504:	d9012c17 	ldw	r4,1200(sp)
   82508:	980b883a 	mov	r5,r19
   8250c:	d9811e04 	addi	r6,sp,1144
   82510:	0087e380 	call	87e38 <__sprint_r>
   82514:	103a251e 	bne	r2,zero,80dac <___vfprintf_internal_r+0x470>
   82518:	dc812617 	ldw	r18,1176(sp)
   8251c:	d8c12017 	ldw	r3,1152(sp)
   82520:	da000404 	addi	r8,sp,16
   82524:	003f8f06 	br	82364 <___vfprintf_internal_r+0x1a28>
   82528:	d9012a17 	ldw	r4,1192(sp)
   8252c:	8c400044 	addi	r17,r17,1
   82530:	14800047 	ldb	r18,1(r2)
   82534:	21000814 	ori	r4,r4,32
   82538:	d9012a15 	stw	r4,1192(sp)
   8253c:	00396406 	br	80ad0 <___vfprintf_internal_r+0x194>
   82540:	d9012c17 	ldw	r4,1200(sp)
   82544:	980b883a 	mov	r5,r19
   82548:	d9811e04 	addi	r6,sp,1144
   8254c:	0087e380 	call	87e38 <__sprint_r>
   82550:	103a161e 	bne	r2,zero,80dac <___vfprintf_internal_r+0x470>
   82554:	d8c12017 	ldw	r3,1152(sp)
   82558:	da000404 	addi	r8,sp,16
   8255c:	003cdc06 	br	818d0 <___vfprintf_internal_r+0xf94>
   82560:	df013f15 	stw	fp,1276(sp)
   82564:	00808b00 	call	808b0 <strlen>
   82568:	d8812e15 	stw	r2,1208(sp)
   8256c:	da013f17 	ldw	r8,1276(sp)
   82570:	103c3f0e 	bge	r2,zero,81670 <___vfprintf_internal_r+0xd34>
   82574:	0005883a 	mov	r2,zero
   82578:	003c3d06 	br	81670 <___vfprintf_internal_r+0xd34>
   8257c:	d9012c17 	ldw	r4,1200(sp)
   82580:	980b883a 	mov	r5,r19
   82584:	d9811e04 	addi	r6,sp,1144
   82588:	0087e380 	call	87e38 <__sprint_r>
   8258c:	103a071e 	bne	r2,zero,80dac <___vfprintf_internal_r+0x470>
   82590:	d8c12017 	ldw	r3,1152(sp)
   82594:	d8811f17 	ldw	r2,1148(sp)
   82598:	da000404 	addi	r8,sp,16
   8259c:	d9013517 	ldw	r4,1236(sp)
   825a0:	10800044 	addi	r2,r2,1
   825a4:	44000015 	stw	r16,0(r8)
   825a8:	20c7883a 	add	r3,r4,r3
   825ac:	003aed06 	br	81164 <___vfprintf_internal_r+0x828>
   825b0:	01000274 	movhi	r4,9
   825b4:	213f1084 	addi	r4,r4,-958
   825b8:	d9013615 	stw	r4,1240(sp)
   825bc:	003a8706 	br	80fdc <___vfprintf_internal_r+0x6a0>
   825c0:	0029883a 	mov	r20,zero
   825c4:	003dd706 	br	81d24 <___vfprintf_internal_r+0x13e8>
   825c8:	d9012c17 	ldw	r4,1200(sp)
   825cc:	980b883a 	mov	r5,r19
   825d0:	d9811e04 	addi	r6,sp,1144
   825d4:	0087e380 	call	87e38 <__sprint_r>
   825d8:	1039f41e 	bne	r2,zero,80dac <___vfprintf_internal_r+0x470>
   825dc:	d8c12017 	ldw	r3,1152(sp)
   825e0:	da000404 	addi	r8,sp,16
   825e4:	003dce06 	br	81d20 <___vfprintf_internal_r+0x13e4>
   825e8:	d9012c17 	ldw	r4,1200(sp)
   825ec:	980b883a 	mov	r5,r19
   825f0:	d9811e04 	addi	r6,sp,1144
   825f4:	0087e380 	call	87e38 <__sprint_r>
   825f8:	1039ec1e 	bne	r2,zero,80dac <___vfprintf_internal_r+0x470>
   825fc:	d8812617 	ldw	r2,1176(sp)
   82600:	d8c12017 	ldw	r3,1152(sp)
   82604:	da000404 	addi	r8,sp,16
   82608:	003e3106 	br	81ed0 <___vfprintf_internal_r+0x1594>
   8260c:	1c87883a 	add	r3,r3,r18
   82610:	10800044 	addi	r2,r2,1
   82614:	45400015 	stw	r21,0(r8)
   82618:	44800115 	stw	r18,4(r8)
   8261c:	d8c12015 	stw	r3,1152(sp)
   82620:	d8811f15 	stw	r2,1148(sp)
   82624:	010001c4 	movi	r4,7
   82628:	20bfd416 	blt	r4,r2,8257c <___vfprintf_internal_r+0x1c40>
   8262c:	42000204 	addi	r8,r8,8
   82630:	003fda06 	br	8259c <___vfprintf_internal_r+0x1c60>
   82634:	01400274 	movhi	r5,9
   82638:	297f1084 	addi	r5,r5,-958
   8263c:	d9413615 	stw	r5,1240(sp)
   82640:	003af406 	br	81214 <___vfprintf_internal_r+0x8d8>
   82644:	00800184 	movi	r2,6
   82648:	1500012e 	bgeu	r2,r20,82650 <___vfprintf_internal_r+0x1d14>
   8264c:	1029883a 	mov	r20,r2
   82650:	dd012e15 	stw	r20,1208(sp)
   82654:	a005883a 	mov	r2,r20
   82658:	a000d216 	blt	r20,zero,829a4 <___vfprintf_internal_r+0x2068>
   8265c:	d8812b15 	stw	r2,1196(sp)
   82660:	dd412f15 	stw	r21,1212(sp)
   82664:	0029883a 	mov	r20,zero
   82668:	d8013315 	stw	zero,1228(sp)
   8266c:	04000274 	movhi	r16,9
   82670:	843f0a04 	addi	r16,r16,-984
   82674:	0005883a 	mov	r2,zero
   82678:	003a2006 	br	80efc <___vfprintf_internal_r+0x5c0>
   8267c:	0029883a 	mov	r20,zero
   82680:	003e2506 	br	81f18 <___vfprintf_internal_r+0x15dc>
   82684:	d9012c17 	ldw	r4,1200(sp)
   82688:	980b883a 	mov	r5,r19
   8268c:	d9811e04 	addi	r6,sp,1144
   82690:	0087e380 	call	87e38 <__sprint_r>
   82694:	1039c51e 	bne	r2,zero,80dac <___vfprintf_internal_r+0x470>
   82698:	d8812617 	ldw	r2,1176(sp)
   8269c:	d9413517 	ldw	r5,1236(sp)
   826a0:	d8c12017 	ldw	r3,1152(sp)
   826a4:	da000404 	addi	r8,sp,16
   826a8:	2885c83a 	sub	r2,r5,r2
   826ac:	003e1906 	br	81f14 <___vfprintf_internal_r+0x15d8>
   826b0:	d9412f17 	ldw	r5,1212(sp)
   826b4:	d8c13117 	ldw	r3,1220(sp)
   826b8:	28800017 	ldw	r2,0(r5)
   826bc:	29400104 	addi	r5,r5,4
   826c0:	d9412f15 	stw	r5,1212(sp)
   826c4:	10c00015 	stw	r3,0(r2)
   826c8:	0038da06 	br	80a34 <___vfprintf_internal_r+0xf8>
   826cc:	07000b44 	movi	fp,45
   826d0:	df012785 	stb	fp,1182(sp)
   826d4:	003b0a06 	br	81300 <___vfprintf_internal_r+0x9c4>
   826d8:	04000274 	movhi	r16,9
   826dc:	843eff04 	addi	r16,r16,-1028
   826e0:	003f5206 	br	8242c <___vfprintf_internal_r+0x1af0>
   826e4:	00c00b44 	movi	r3,45
   826e8:	d8c12785 	stb	r3,1182(sp)
   826ec:	d8c12d17 	ldw	r3,1204(sp)
   826f0:	d8812b15 	stw	r2,1196(sp)
   826f4:	0029883a 	mov	r20,zero
   826f8:	d8c12a15 	stw	r3,1192(sp)
   826fc:	00800b44 	movi	r2,45
   82700:	0039fb06 	br	80ef0 <___vfprintf_internal_r+0x5b4>
   82704:	d8812617 	ldw	r2,1176(sp)
   82708:	00ffff44 	movi	r3,-3
   8270c:	10c03216 	blt	r2,r3,827d8 <___vfprintf_internal_r+0x1e9c>
   82710:	a0803116 	blt	r20,r2,827d8 <___vfprintf_internal_r+0x1e9c>
   82714:	d8813315 	stw	r2,1228(sp)
   82718:	003e9706 	br	82178 <___vfprintf_internal_r+0x183c>
   8271c:	4805883a 	mov	r2,r9
   82720:	003e8b06 	br	82150 <___vfprintf_internal_r+0x1814>
   82724:	d8812604 	addi	r2,sp,1176
   82728:	d8800115 	stw	r2,4(sp)
   8272c:	d9012c17 	ldw	r4,1200(sp)
   82730:	d8812504 	addi	r2,sp,1172
   82734:	d9413717 	ldw	r5,1244(sp)
   82738:	d8800215 	stw	r2,8(sp)
   8273c:	d8812104 	addi	r2,sp,1156
   82740:	dd000015 	stw	r20,0(sp)
   82744:	d8800315 	stw	r2,12(sp)
   82748:	a80d883a 	mov	r6,r21
   8274c:	01c000c4 	movi	r7,3
   82750:	da013f15 	stw	r8,1276(sp)
   82754:	0082e140 	call	82e14 <_dtoa_r>
   82758:	1021883a 	mov	r16,r2
   8275c:	a039883a 	mov	fp,r20
   82760:	da013f17 	ldw	r8,1276(sp)
   82764:	003e6506 	br	820fc <___vfprintf_internal_r+0x17c0>
   82768:	dd012b15 	stw	r20,1196(sp)
   8276c:	dd012e15 	stw	r20,1208(sp)
   82770:	df012783 	ldbu	fp,1182(sp)
   82774:	dd412f15 	stw	r21,1212(sp)
   82778:	0029883a 	mov	r20,zero
   8277c:	d8013315 	stw	zero,1228(sp)
   82780:	0039d706 	br	80ee0 <___vfprintf_internal_r+0x5a4>
   82784:	81000007 	ldb	r4,0(r16)
   82788:	00800c04 	movi	r2,48
   8278c:	20800326 	beq	r4,r2,8279c <___vfprintf_internal_r+0x1e60>
   82790:	d8c12617 	ldw	r3,1176(sp)
   82794:	48d3883a 	add	r9,r9,r3
   82798:	003e5b06 	br	82108 <___vfprintf_internal_r+0x17cc>
   8279c:	d9013717 	ldw	r4,1244(sp)
   827a0:	a80b883a 	mov	r5,r21
   827a4:	000d883a 	mov	r6,zero
   827a8:	000f883a 	mov	r7,zero
   827ac:	da013f15 	stw	r8,1276(sp)
   827b0:	da413e15 	stw	r9,1272(sp)
   827b4:	008bcb80 	call	8bcb8 <__eqdf2>
   827b8:	da013f17 	ldw	r8,1276(sp)
   827bc:	da413e17 	ldw	r9,1272(sp)
   827c0:	103ff326 	beq	r2,zero,82790 <___vfprintf_internal_r+0x1e54>
   827c4:	00800044 	movi	r2,1
   827c8:	1707c83a 	sub	r3,r2,fp
   827cc:	d8c12615 	stw	r3,1176(sp)
   827d0:	48d3883a 	add	r9,r9,r3
   827d4:	003e4c06 	br	82108 <___vfprintf_internal_r+0x17cc>
   827d8:	94bfff84 	addi	r18,r18,-2
   827dc:	157fffc4 	addi	r21,r2,-1
   827e0:	dd412615 	stw	r21,1176(sp)
   827e4:	dc8122c5 	stb	r18,1163(sp)
   827e8:	a8009016 	blt	r21,zero,82a2c <___vfprintf_internal_r+0x20f0>
   827ec:	00800ac4 	movi	r2,43
   827f0:	d8812305 	stb	r2,1164(sp)
   827f4:	05000244 	movi	r20,9
   827f8:	a5404a16 	blt	r20,r21,82924 <___vfprintf_internal_r+0x1fe8>
   827fc:	00800c04 	movi	r2,48
   82800:	ad400c04 	addi	r21,r21,48
   82804:	d8812345 	stb	r2,1165(sp)
   82808:	dd412385 	stb	r21,1166(sp)
   8280c:	d8c123c4 	addi	r3,sp,1167
   82810:	d88122c4 	addi	r2,sp,1163
   82814:	1885c83a 	sub	r2,r3,r2
   82818:	d8c13517 	ldw	r3,1236(sp)
   8281c:	d9013517 	ldw	r4,1236(sp)
   82820:	d8813a15 	stw	r2,1256(sp)
   82824:	1887883a 	add	r3,r3,r2
   82828:	d8c12e15 	stw	r3,1208(sp)
   8282c:	00800044 	movi	r2,1
   82830:	11007a0e 	bge	r2,r4,82a1c <___vfprintf_internal_r+0x20e0>
   82834:	d8c12e17 	ldw	r3,1208(sp)
   82838:	18c00044 	addi	r3,r3,1
   8283c:	d8c12e15 	stw	r3,1208(sp)
   82840:	1805883a 	mov	r2,r3
   82844:	18000216 	blt	r3,zero,82850 <___vfprintf_internal_r+0x1f14>
   82848:	d8013315 	stw	zero,1228(sp)
   8284c:	003e5506 	br	821a4 <___vfprintf_internal_r+0x1868>
   82850:	0005883a 	mov	r2,zero
   82854:	d8013315 	stw	zero,1228(sp)
   82858:	003e5206 	br	821a4 <___vfprintf_internal_r+0x1868>
   8285c:	a03e031e 	bne	r20,zero,8206c <___vfprintf_internal_r+0x1730>
   82860:	8029883a 	mov	r20,r16
   82864:	003e0106 	br	8206c <___vfprintf_internal_r+0x1730>
   82868:	d9012c17 	ldw	r4,1200(sp)
   8286c:	980b883a 	mov	r5,r19
   82870:	d9811e04 	addi	r6,sp,1144
   82874:	0087e380 	call	87e38 <__sprint_r>
   82878:	10394c1e 	bne	r2,zero,80dac <___vfprintf_internal_r+0x470>
   8287c:	dc812617 	ldw	r18,1176(sp)
   82880:	d8c12017 	ldw	r3,1152(sp)
   82884:	d8811f17 	ldw	r2,1148(sp)
   82888:	da000404 	addi	r8,sp,16
   8288c:	003ec706 	br	823ac <___vfprintf_internal_r+0x1a70>
   82890:	05000184 	movi	r20,6
   82894:	003df506 	br	8206c <___vfprintf_internal_r+0x1730>
   82898:	00c00b44 	movi	r3,45
   8289c:	2560003c 	xorhi	r21,r4,32768
   828a0:	d8c12b05 	stb	r3,1196(sp)
   828a4:	003df806 	br	82088 <___vfprintf_internal_r+0x174c>
   828a8:	a7000044 	addi	fp,r20,1
   828ac:	003dfd06 	br	820a4 <___vfprintf_internal_r+0x1768>
   828b0:	d8c13317 	ldw	r3,1228(sp)
   828b4:	00c0610e 	bge	zero,r3,82a3c <___vfprintf_internal_r+0x2100>
   828b8:	00800044 	movi	r2,1
   828bc:	d9013517 	ldw	r4,1236(sp)
   828c0:	1105883a 	add	r2,r2,r4
   828c4:	d8812e15 	stw	r2,1208(sp)
   828c8:	10000716 	blt	r2,zero,828e8 <___vfprintf_internal_r+0x1fac>
   828cc:	048019c4 	movi	r18,103
   828d0:	003e3406 	br	821a4 <___vfprintf_internal_r+0x1868>
   828d4:	d8c13317 	ldw	r3,1228(sp)
   828d8:	18c00044 	addi	r3,r3,1
   828dc:	d8c12e15 	stw	r3,1208(sp)
   828e0:	1805883a 	mov	r2,r3
   828e4:	183ff90e 	bge	r3,zero,828cc <___vfprintf_internal_r+0x1f90>
   828e8:	0005883a 	mov	r2,zero
   828ec:	048019c4 	movi	r18,103
   828f0:	003e2c06 	br	821a4 <___vfprintf_internal_r+0x1868>
   828f4:	d8812117 	ldw	r2,1156(sp)
   828f8:	003e1506 	br	82150 <___vfprintf_internal_r+0x1814>
   828fc:	00c0400e 	bge	zero,r3,82a00 <___vfprintf_internal_r+0x20c4>
   82900:	a0002a1e 	bne	r20,zero,829ac <___vfprintf_internal_r+0x2070>
   82904:	d9012a17 	ldw	r4,1192(sp)
   82908:	2080004c 	andi	r2,r4,1
   8290c:	1000271e 	bne	r2,zero,829ac <___vfprintf_internal_r+0x2070>
   82910:	1805883a 	mov	r2,r3
   82914:	18005a16 	blt	r3,zero,82a80 <___vfprintf_internal_r+0x2144>
   82918:	d8c13317 	ldw	r3,1228(sp)
   8291c:	d8c12e15 	stw	r3,1208(sp)
   82920:	003e2006 	br	821a4 <___vfprintf_internal_r+0x1868>
   82924:	d8c12284 	addi	r3,sp,1162
   82928:	4039883a 	mov	fp,r8
   8292c:	a809883a 	mov	r4,r21
   82930:	01400284 	movi	r5,10
   82934:	182d883a 	mov	r22,r3
   82938:	008aa1c0 	call	8aa1c <__modsi3>
   8293c:	10800c04 	addi	r2,r2,48
   82940:	a809883a 	mov	r4,r21
   82944:	b0800005 	stb	r2,0(r22)
   82948:	01400284 	movi	r5,10
   8294c:	008a9d40 	call	8a9d4 <__divsi3>
   82950:	102b883a 	mov	r21,r2
   82954:	b0ffffc4 	addi	r3,r22,-1
   82958:	a0bff416 	blt	r20,r2,8292c <___vfprintf_internal_r+0x1ff0>
   8295c:	11400c04 	addi	r5,r2,48
   82960:	b17fffc5 	stb	r5,-1(r22)
   82964:	d88122c4 	addi	r2,sp,1163
   82968:	e011883a 	mov	r8,fp
   8296c:	1880462e 	bgeu	r3,r2,82a88 <___vfprintf_internal_r+0x214c>
   82970:	d9012344 	addi	r4,sp,1165
   82974:	b007883a 	mov	r3,r22
   82978:	00000206 	br	82984 <___vfprintf_internal_r+0x2048>
   8297c:	19400003 	ldbu	r5,0(r3)
   82980:	18c00044 	addi	r3,r3,1
   82984:	21400005 	stb	r5,0(r4)
   82988:	21000044 	addi	r4,r4,1
   8298c:	10fffb1e 	bne	r2,r3,8297c <___vfprintf_internal_r+0x2040>
   82990:	d8c12304 	addi	r3,sp,1164
   82994:	1d87c83a 	sub	r3,r3,r22
   82998:	d9412344 	addi	r5,sp,1165
   8299c:	28c7883a 	add	r3,r5,r3
   829a0:	003f9c06 	br	82814 <___vfprintf_internal_r+0x1ed8>
   829a4:	0005883a 	mov	r2,zero
   829a8:	003f2c06 	br	8265c <___vfprintf_internal_r+0x1d20>
   829ac:	d8c13317 	ldw	r3,1228(sp)
   829b0:	a5000044 	addi	r20,r20,1
   829b4:	1d29883a 	add	r20,r3,r20
   829b8:	dd012e15 	stw	r20,1208(sp)
   829bc:	a005883a 	mov	r2,r20
   829c0:	a03df80e 	bge	r20,zero,821a4 <___vfprintf_internal_r+0x1868>
   829c4:	0005883a 	mov	r2,zero
   829c8:	003df606 	br	821a4 <___vfprintf_internal_r+0x1868>
   829cc:	043fffc4 	movi	r16,-1
   829d0:	0038d406 	br	80d24 <___vfprintf_internal_r+0x3e8>
   829d4:	d9012f17 	ldw	r4,1212(sp)
   829d8:	8c800043 	ldbu	r18,1(r17)
   829dc:	1023883a 	mov	r17,r2
   829e0:	20c00017 	ldw	r3,0(r4)
   829e4:	21000104 	addi	r4,r4,4
   829e8:	d9012f15 	stw	r4,1212(sp)
   829ec:	18001f16 	blt	r3,zero,82a6c <___vfprintf_internal_r+0x2130>
   829f0:	94803fcc 	andi	r18,r18,255
   829f4:	9480201c 	xori	r18,r18,128
   829f8:	94bfe004 	addi	r18,r18,-128
   829fc:	00383406 	br	80ad0 <___vfprintf_internal_r+0x194>
   82a00:	a000111e 	bne	r20,zero,82a48 <___vfprintf_internal_r+0x210c>
   82a04:	d9012a17 	ldw	r4,1192(sp)
   82a08:	2080004c 	andi	r2,r4,1
   82a0c:	10000e1e 	bne	r2,zero,82a48 <___vfprintf_internal_r+0x210c>
   82a10:	00800044 	movi	r2,1
   82a14:	d8812e15 	stw	r2,1208(sp)
   82a18:	003de206 	br	821a4 <___vfprintf_internal_r+0x1868>
   82a1c:	d9412a17 	ldw	r5,1192(sp)
   82a20:	2884703a 	and	r2,r5,r2
   82a24:	103f831e 	bne	r2,zero,82834 <___vfprintf_internal_r+0x1ef8>
   82a28:	003f8506 	br	82840 <___vfprintf_internal_r+0x1f04>
   82a2c:	00800b44 	movi	r2,45
   82a30:	056bc83a 	sub	r21,zero,r21
   82a34:	d8812305 	stb	r2,1164(sp)
   82a38:	003f6e06 	br	827f4 <___vfprintf_internal_r+0x1eb8>
   82a3c:	00800084 	movi	r2,2
   82a40:	10c5c83a 	sub	r2,r2,r3
   82a44:	003f9d06 	br	828bc <___vfprintf_internal_r+0x1f80>
   82a48:	a5000084 	addi	r20,r20,2
   82a4c:	dd012e15 	stw	r20,1208(sp)
   82a50:	a005883a 	mov	r2,r20
   82a54:	a03dd30e 	bge	r20,zero,821a4 <___vfprintf_internal_r+0x1868>
   82a58:	003fda06 	br	829c4 <___vfprintf_internal_r+0x2088>
   82a5c:	0005883a 	mov	r2,zero
   82a60:	003dcd06 	br	82198 <___vfprintf_internal_r+0x185c>
   82a64:	d8812617 	ldw	r2,1176(sp)
   82a68:	003f5c06 	br	827dc <___vfprintf_internal_r+0x1ea0>
   82a6c:	94803fcc 	andi	r18,r18,255
   82a70:	9480201c 	xori	r18,r18,128
   82a74:	00ffffc4 	movi	r3,-1
   82a78:	94bfe004 	addi	r18,r18,-128
   82a7c:	00381406 	br	80ad0 <___vfprintf_internal_r+0x194>
   82a80:	0005883a 	mov	r2,zero
   82a84:	003fa406 	br	82918 <___vfprintf_internal_r+0x1fdc>
   82a88:	d8c12344 	addi	r3,sp,1165
   82a8c:	003f6106 	br	82814 <___vfprintf_internal_r+0x1ed8>

00082a90 <__vfprintf_internal>:
   82a90:	00800274 	movhi	r2,9
   82a94:	10866404 	addi	r2,r2,6544
   82a98:	2007883a 	mov	r3,r4
   82a9c:	11000017 	ldw	r4,0(r2)
   82aa0:	2805883a 	mov	r2,r5
   82aa4:	300f883a 	mov	r7,r6
   82aa8:	180b883a 	mov	r5,r3
   82aac:	100d883a 	mov	r6,r2
   82ab0:	008093c1 	jmpi	8093c <___vfprintf_internal_r>

00082ab4 <__swsetup_r>:
   82ab4:	00800274 	movhi	r2,9
   82ab8:	10866404 	addi	r2,r2,6544
   82abc:	10800017 	ldw	r2,0(r2)
   82ac0:	defffd04 	addi	sp,sp,-12
   82ac4:	dc400115 	stw	r17,4(sp)
   82ac8:	dc000015 	stw	r16,0(sp)
   82acc:	dfc00215 	stw	ra,8(sp)
   82ad0:	2023883a 	mov	r17,r4
   82ad4:	2821883a 	mov	r16,r5
   82ad8:	10000226 	beq	r2,zero,82ae4 <__swsetup_r+0x30>
   82adc:	10c00e17 	ldw	r3,56(r2)
   82ae0:	18002e26 	beq	r3,zero,82b9c <__swsetup_r+0xe8>
   82ae4:	8080030b 	ldhu	r2,12(r16)
   82ae8:	10c0020c 	andi	r3,r2,8
   82aec:	100d883a 	mov	r6,r2
   82af0:	18000f26 	beq	r3,zero,82b30 <__swsetup_r+0x7c>
   82af4:	80c00417 	ldw	r3,16(r16)
   82af8:	18001526 	beq	r3,zero,82b50 <__swsetup_r+0x9c>
   82afc:	1100004c 	andi	r4,r2,1
   82b00:	20001c1e 	bne	r4,zero,82b74 <__swsetup_r+0xc0>
   82b04:	1080008c 	andi	r2,r2,2
   82b08:	1000271e 	bne	r2,zero,82ba8 <__swsetup_r+0xf4>
   82b0c:	80800517 	ldw	r2,20(r16)
   82b10:	80800215 	stw	r2,8(r16)
   82b14:	18001c26 	beq	r3,zero,82b88 <__swsetup_r+0xd4>
   82b18:	0005883a 	mov	r2,zero
   82b1c:	dfc00217 	ldw	ra,8(sp)
   82b20:	dc400117 	ldw	r17,4(sp)
   82b24:	dc000017 	ldw	r16,0(sp)
   82b28:	dec00304 	addi	sp,sp,12
   82b2c:	f800283a 	ret
   82b30:	3080040c 	andi	r2,r6,16
   82b34:	10001726 	beq	r2,zero,82b94 <__swsetup_r+0xe0>
   82b38:	3080010c 	andi	r2,r6,4
   82b3c:	10001d1e 	bne	r2,zero,82bb4 <__swsetup_r+0x100>
   82b40:	80c00417 	ldw	r3,16(r16)
   82b44:	30800214 	ori	r2,r6,8
   82b48:	8080030d 	sth	r2,12(r16)
   82b4c:	183feb1e 	bne	r3,zero,82afc <__swsetup_r+0x48>
   82b50:	1140a00c 	andi	r5,r2,640
   82b54:	01008004 	movi	r4,512
   82b58:	293fe826 	beq	r5,r4,82afc <__swsetup_r+0x48>
   82b5c:	8809883a 	mov	r4,r17
   82b60:	800b883a 	mov	r5,r16
   82b64:	00855540 	call	85554 <__smakebuf_r>
   82b68:	8080030b 	ldhu	r2,12(r16)
   82b6c:	80c00417 	ldw	r3,16(r16)
   82b70:	003fe206 	br	82afc <__swsetup_r+0x48>
   82b74:	80800517 	ldw	r2,20(r16)
   82b78:	80000215 	stw	zero,8(r16)
   82b7c:	0085c83a 	sub	r2,zero,r2
   82b80:	80800615 	stw	r2,24(r16)
   82b84:	183fe41e 	bne	r3,zero,82b18 <__swsetup_r+0x64>
   82b88:	8080030b 	ldhu	r2,12(r16)
   82b8c:	1080200c 	andi	r2,r2,128
   82b90:	103fe226 	beq	r2,zero,82b1c <__swsetup_r+0x68>
   82b94:	00bfffc4 	movi	r2,-1
   82b98:	003fe006 	br	82b1c <__swsetup_r+0x68>
   82b9c:	1009883a 	mov	r4,r2
   82ba0:	00847700 	call	84770 <__sinit>
   82ba4:	003fcf06 	br	82ae4 <__swsetup_r+0x30>
   82ba8:	0005883a 	mov	r2,zero
   82bac:	80800215 	stw	r2,8(r16)
   82bb0:	003fd806 	br	82b14 <__swsetup_r+0x60>
   82bb4:	81400c17 	ldw	r5,48(r16)
   82bb8:	28000626 	beq	r5,zero,82bd4 <__swsetup_r+0x120>
   82bbc:	80801004 	addi	r2,r16,64
   82bc0:	28800326 	beq	r5,r2,82bd0 <__swsetup_r+0x11c>
   82bc4:	8809883a 	mov	r4,r17
   82bc8:	0084ba40 	call	84ba4 <_free_r>
   82bcc:	8180030b 	ldhu	r6,12(r16)
   82bd0:	80000c15 	stw	zero,48(r16)
   82bd4:	80c00417 	ldw	r3,16(r16)
   82bd8:	00bff6c4 	movi	r2,-37
   82bdc:	118c703a 	and	r6,r2,r6
   82be0:	80000115 	stw	zero,4(r16)
   82be4:	80c00015 	stw	r3,0(r16)
   82be8:	003fd606 	br	82b44 <__swsetup_r+0x90>

00082bec <quorem>:
   82bec:	defff204 	addi	sp,sp,-56
   82bf0:	dd400915 	stw	r21,36(sp)
   82bf4:	20800417 	ldw	r2,16(r4)
   82bf8:	2d400417 	ldw	r21,16(r5)
   82bfc:	dfc00d15 	stw	ra,52(sp)
   82c00:	df000c15 	stw	fp,48(sp)
   82c04:	ddc00b15 	stw	r23,44(sp)
   82c08:	dd800a15 	stw	r22,40(sp)
   82c0c:	dd000815 	stw	r20,32(sp)
   82c10:	dcc00715 	stw	r19,28(sp)
   82c14:	dc800615 	stw	r18,24(sp)
   82c18:	dc400515 	stw	r17,20(sp)
   82c1c:	dc000415 	stw	r16,16(sp)
   82c20:	d9000015 	stw	r4,0(sp)
   82c24:	d9400115 	stw	r5,4(sp)
   82c28:	15407816 	blt	r2,r21,82e0c <quorem+0x220>
   82c2c:	ad7fffc4 	addi	r21,r21,-1
   82c30:	ad79883a 	add	fp,r21,r21
   82c34:	28c00504 	addi	r3,r5,20
   82c38:	e739883a 	add	fp,fp,fp
   82c3c:	1f2f883a 	add	r23,r3,fp
   82c40:	24400504 	addi	r17,r4,20
   82c44:	8f39883a 	add	fp,r17,fp
   82c48:	b9400017 	ldw	r5,0(r23)
   82c4c:	e1000017 	ldw	r4,0(fp)
   82c50:	d8c00215 	stw	r3,8(sp)
   82c54:	29400044 	addi	r5,r5,1
   82c58:	df000315 	stw	fp,12(sp)
   82c5c:	008aa680 	call	8aa68 <__udivsi3>
   82c60:	1021883a 	mov	r16,r2
   82c64:	10003026 	beq	r2,zero,82d28 <quorem+0x13c>
   82c68:	dcc00217 	ldw	r19,8(sp)
   82c6c:	8829883a 	mov	r20,r17
   82c70:	002d883a 	mov	r22,zero
   82c74:	0039883a 	mov	fp,zero
   82c78:	9c800017 	ldw	r18,0(r19)
   82c7c:	800b883a 	mov	r5,r16
   82c80:	9cc00104 	addi	r19,r19,4
   82c84:	913fffcc 	andi	r4,r18,65535
   82c88:	008aa780 	call	8aa78 <__mulsi3>
   82c8c:	9008d43a 	srli	r4,r18,16
   82c90:	800b883a 	mov	r5,r16
   82c94:	b0ad883a 	add	r22,r22,r2
   82c98:	008aa780 	call	8aa78 <__mulsi3>
   82c9c:	a1400017 	ldw	r5,0(r20)
   82ca0:	b010d43a 	srli	r8,r22,16
   82ca4:	b0ffffcc 	andi	r3,r22,65535
   82ca8:	293fffcc 	andi	r4,r5,65535
   82cac:	2709883a 	add	r4,r4,fp
   82cb0:	280cd43a 	srli	r6,r5,16
   82cb4:	20c9c83a 	sub	r4,r4,r3
   82cb8:	4085883a 	add	r2,r8,r2
   82cbc:	2007d43a 	srai	r3,r4,16
   82cc0:	117fffcc 	andi	r5,r2,65535
   82cc4:	314bc83a 	sub	r5,r6,r5
   82cc8:	28cb883a 	add	r5,r5,r3
   82ccc:	280c943a 	slli	r6,r5,16
   82cd0:	213fffcc 	andi	r4,r4,65535
   82cd4:	102cd43a 	srli	r22,r2,16
   82cd8:	3108b03a 	or	r4,r6,r4
   82cdc:	a1000015 	stw	r4,0(r20)
   82ce0:	2839d43a 	srai	fp,r5,16
   82ce4:	a5000104 	addi	r20,r20,4
   82ce8:	bcffe32e 	bgeu	r23,r19,82c78 <quorem+0x8c>
   82cec:	d8c00317 	ldw	r3,12(sp)
   82cf0:	18800017 	ldw	r2,0(r3)
   82cf4:	10000c1e 	bne	r2,zero,82d28 <quorem+0x13c>
   82cf8:	18bfff04 	addi	r2,r3,-4
   82cfc:	8880082e 	bgeu	r17,r2,82d20 <quorem+0x134>
   82d00:	18ffff17 	ldw	r3,-4(r3)
   82d04:	18000326 	beq	r3,zero,82d14 <quorem+0x128>
   82d08:	00000506 	br	82d20 <quorem+0x134>
   82d0c:	10c00017 	ldw	r3,0(r2)
   82d10:	1800031e 	bne	r3,zero,82d20 <quorem+0x134>
   82d14:	10bfff04 	addi	r2,r2,-4
   82d18:	ad7fffc4 	addi	r21,r21,-1
   82d1c:	88bffb36 	bltu	r17,r2,82d0c <quorem+0x120>
   82d20:	d8c00017 	ldw	r3,0(sp)
   82d24:	1d400415 	stw	r21,16(r3)
   82d28:	d9000017 	ldw	r4,0(sp)
   82d2c:	d9400117 	ldw	r5,4(sp)
   82d30:	0086c800 	call	86c80 <__mcmp>
   82d34:	10002816 	blt	r2,zero,82dd8 <quorem+0x1ec>
   82d38:	d8c00217 	ldw	r3,8(sp)
   82d3c:	84000044 	addi	r16,r16,1
   82d40:	880d883a 	mov	r6,r17
   82d44:	000f883a 	mov	r7,zero
   82d48:	32800017 	ldw	r10,0(r6)
   82d4c:	1a400017 	ldw	r9,0(r3)
   82d50:	31800104 	addi	r6,r6,4
   82d54:	523fffcc 	andi	r8,r10,65535
   82d58:	48bfffcc 	andi	r2,r9,65535
   82d5c:	41cf883a 	add	r7,r8,r7
   82d60:	3891c83a 	sub	r8,r7,r2
   82d64:	4812d43a 	srli	r9,r9,16
   82d68:	500ed43a 	srli	r7,r10,16
   82d6c:	4005d43a 	srai	r2,r8,16
   82d70:	423fffcc 	andi	r8,r8,65535
   82d74:	3a4fc83a 	sub	r7,r7,r9
   82d78:	388f883a 	add	r7,r7,r2
   82d7c:	3804943a 	slli	r2,r7,16
   82d80:	18c00104 	addi	r3,r3,4
   82d84:	380fd43a 	srai	r7,r7,16
   82d88:	1210b03a 	or	r8,r2,r8
   82d8c:	323fff15 	stw	r8,-4(r6)
   82d90:	b8ffed2e 	bgeu	r23,r3,82d48 <quorem+0x15c>
   82d94:	ad45883a 	add	r2,r21,r21
   82d98:	1085883a 	add	r2,r2,r2
   82d9c:	8887883a 	add	r3,r17,r2
   82da0:	18800017 	ldw	r2,0(r3)
   82da4:	10000c1e 	bne	r2,zero,82dd8 <quorem+0x1ec>
   82da8:	18bfff04 	addi	r2,r3,-4
   82dac:	8880082e 	bgeu	r17,r2,82dd0 <quorem+0x1e4>
   82db0:	18ffff17 	ldw	r3,-4(r3)
   82db4:	18000326 	beq	r3,zero,82dc4 <quorem+0x1d8>
   82db8:	00000506 	br	82dd0 <quorem+0x1e4>
   82dbc:	10c00017 	ldw	r3,0(r2)
   82dc0:	1800031e 	bne	r3,zero,82dd0 <quorem+0x1e4>
   82dc4:	10bfff04 	addi	r2,r2,-4
   82dc8:	ad7fffc4 	addi	r21,r21,-1
   82dcc:	88bffb36 	bltu	r17,r2,82dbc <quorem+0x1d0>
   82dd0:	d8c00017 	ldw	r3,0(sp)
   82dd4:	1d400415 	stw	r21,16(r3)
   82dd8:	8005883a 	mov	r2,r16
   82ddc:	dfc00d17 	ldw	ra,52(sp)
   82de0:	df000c17 	ldw	fp,48(sp)
   82de4:	ddc00b17 	ldw	r23,44(sp)
   82de8:	dd800a17 	ldw	r22,40(sp)
   82dec:	dd400917 	ldw	r21,36(sp)
   82df0:	dd000817 	ldw	r20,32(sp)
   82df4:	dcc00717 	ldw	r19,28(sp)
   82df8:	dc800617 	ldw	r18,24(sp)
   82dfc:	dc400517 	ldw	r17,20(sp)
   82e00:	dc000417 	ldw	r16,16(sp)
   82e04:	dec00e04 	addi	sp,sp,56
   82e08:	f800283a 	ret
   82e0c:	0005883a 	mov	r2,zero
   82e10:	003ff206 	br	82ddc <quorem+0x1f0>

00082e14 <_dtoa_r>:
   82e14:	20801017 	ldw	r2,64(r4)
   82e18:	deffdf04 	addi	sp,sp,-132
   82e1c:	dcc01a15 	stw	r19,104(sp)
   82e20:	dc801915 	stw	r18,100(sp)
   82e24:	dc401815 	stw	r17,96(sp)
   82e28:	dc001715 	stw	r16,92(sp)
   82e2c:	dfc02015 	stw	ra,128(sp)
   82e30:	df001f15 	stw	fp,124(sp)
   82e34:	ddc01e15 	stw	r23,120(sp)
   82e38:	dd801d15 	stw	r22,116(sp)
   82e3c:	dd401c15 	stw	r21,112(sp)
   82e40:	dd001b15 	stw	r20,108(sp)
   82e44:	d9400315 	stw	r5,12(sp)
   82e48:	d9c00415 	stw	r7,16(sp)
   82e4c:	2021883a 	mov	r16,r4
   82e50:	3023883a 	mov	r17,r6
   82e54:	dcc02317 	ldw	r19,140(sp)
   82e58:	3025883a 	mov	r18,r6
   82e5c:	10000826 	beq	r2,zero,82e80 <_dtoa_r+0x6c>
   82e60:	20c01117 	ldw	r3,68(r4)
   82e64:	01800044 	movi	r6,1
   82e68:	100b883a 	mov	r5,r2
   82e6c:	30cc983a 	sll	r6,r6,r3
   82e70:	10c00115 	stw	r3,4(r2)
   82e74:	11800215 	stw	r6,8(r2)
   82e78:	00863b80 	call	863b8 <_Bfree>
   82e7c:	80001015 	stw	zero,64(r16)
   82e80:	88002e16 	blt	r17,zero,82f3c <_dtoa_r+0x128>
   82e84:	98000015 	stw	zero,0(r19)
   82e88:	88dffc2c 	andhi	r3,r17,32752
   82e8c:	009ffc34 	movhi	r2,32752
   82e90:	18801b26 	beq	r3,r2,82f00 <_dtoa_r+0xec>
   82e94:	d9000317 	ldw	r4,12(sp)
   82e98:	900b883a 	mov	r5,r18
   82e9c:	000d883a 	mov	r6,zero
   82ea0:	000f883a 	mov	r7,zero
   82ea4:	008bcb80 	call	8bcb8 <__eqdf2>
   82ea8:	10002b1e 	bne	r2,zero,82f58 <_dtoa_r+0x144>
   82eac:	d8c02217 	ldw	r3,136(sp)
   82eb0:	d9002417 	ldw	r4,144(sp)
   82eb4:	00800044 	movi	r2,1
   82eb8:	18800015 	stw	r2,0(r3)
   82ebc:	2001a026 	beq	r4,zero,83540 <_dtoa_r+0x72c>
   82ec0:	00800274 	movhi	r2,9
   82ec4:	10bf0c44 	addi	r2,r2,-975
   82ec8:	20800015 	stw	r2,0(r4)
   82ecc:	10bfffc4 	addi	r2,r2,-1
   82ed0:	dfc02017 	ldw	ra,128(sp)
   82ed4:	df001f17 	ldw	fp,124(sp)
   82ed8:	ddc01e17 	ldw	r23,120(sp)
   82edc:	dd801d17 	ldw	r22,116(sp)
   82ee0:	dd401c17 	ldw	r21,112(sp)
   82ee4:	dd001b17 	ldw	r20,108(sp)
   82ee8:	dcc01a17 	ldw	r19,104(sp)
   82eec:	dc801917 	ldw	r18,100(sp)
   82ef0:	dc401817 	ldw	r17,96(sp)
   82ef4:	dc001717 	ldw	r16,92(sp)
   82ef8:	dec02104 	addi	sp,sp,132
   82efc:	f800283a 	ret
   82f00:	d8c02217 	ldw	r3,136(sp)
   82f04:	d9000317 	ldw	r4,12(sp)
   82f08:	0089c3c4 	movi	r2,9999
   82f0c:	18800015 	stw	r2,0(r3)
   82f10:	20017926 	beq	r4,zero,834f8 <_dtoa_r+0x6e4>
   82f14:	00800274 	movhi	r2,9
   82f18:	10bf1804 	addi	r2,r2,-928
   82f1c:	d9802417 	ldw	r6,144(sp)
   82f20:	303feb26 	beq	r6,zero,82ed0 <_dtoa_r+0xbc>
   82f24:	10c000c7 	ldb	r3,3(r2)
   82f28:	18017a1e 	bne	r3,zero,83514 <_dtoa_r+0x700>
   82f2c:	10c000c4 	addi	r3,r2,3
   82f30:	d9c02417 	ldw	r7,144(sp)
   82f34:	38c00015 	stw	r3,0(r7)
   82f38:	003fe506 	br	82ed0 <_dtoa_r+0xbc>
   82f3c:	04a00034 	movhi	r18,32768
   82f40:	94bfffc4 	addi	r18,r18,-1
   82f44:	8ca4703a 	and	r18,r17,r18
   82f48:	00800044 	movi	r2,1
   82f4c:	98800015 	stw	r2,0(r19)
   82f50:	9023883a 	mov	r17,r18
   82f54:	003fcc06 	br	82e88 <_dtoa_r+0x74>
   82f58:	d9400317 	ldw	r5,12(sp)
   82f5c:	d8800204 	addi	r2,sp,8
   82f60:	8828d53a 	srli	r20,r17,20
   82f64:	d8800015 	stw	r2,0(sp)
   82f68:	8009883a 	mov	r4,r16
   82f6c:	900d883a 	mov	r6,r18
   82f70:	d9c00104 	addi	r7,sp,4
   82f74:	0086fe00 	call	86fe0 <__d2b>
   82f78:	1039883a 	mov	fp,r2
   82f7c:	a001671e 	bne	r20,zero,8351c <_dtoa_r+0x708>
   82f80:	dd400217 	ldw	r21,8(sp)
   82f84:	dd000117 	ldw	r20,4(sp)
   82f88:	00befbc4 	movi	r2,-1041
   82f8c:	ad29883a 	add	r20,r21,r20
   82f90:	a082d616 	blt	r20,r2,83aec <_dtoa_r+0xcd8>
   82f94:	d9800317 	ldw	r6,12(sp)
   82f98:	013f0384 	movi	r4,-1010
   82f9c:	2509c83a 	sub	r4,r4,r20
   82fa0:	a0810484 	addi	r2,r20,1042
   82fa4:	8922983a 	sll	r17,r17,r4
   82fa8:	3084d83a 	srl	r2,r6,r2
   82fac:	8888b03a 	or	r4,r17,r2
   82fb0:	008d0d80 	call	8d0d8 <__floatunsidf>
   82fb4:	1009883a 	mov	r4,r2
   82fb8:	017f8434 	movhi	r5,65040
   82fbc:	00800044 	movi	r2,1
   82fc0:	194b883a 	add	r5,r3,r5
   82fc4:	a53fffc4 	addi	r20,r20,-1
   82fc8:	d8800f15 	stw	r2,60(sp)
   82fcc:	000d883a 	mov	r6,zero
   82fd0:	01cffe34 	movhi	r7,16376
   82fd4:	008c7000 	call	8c700 <__subdf3>
   82fd8:	1009883a 	mov	r4,r2
   82fdc:	180b883a 	mov	r5,r3
   82fe0:	0198dbf4 	movhi	r6,25455
   82fe4:	3190d844 	addi	r6,r6,17249
   82fe8:	01cff4f4 	movhi	r7,16339
   82fec:	39e1e9c4 	addi	r7,r7,-30809
   82ff0:	008bf000 	call	8bf00 <__muldf3>
   82ff4:	180b883a 	mov	r5,r3
   82ff8:	01a2d874 	movhi	r6,35681
   82ffc:	31b22cc4 	addi	r6,r6,-14157
   83000:	01cff1f4 	movhi	r7,16327
   83004:	39e28a04 	addi	r7,r7,-30168
   83008:	1009883a 	mov	r4,r2
   8300c:	008aaa00 	call	8aaa0 <__adddf3>
   83010:	a009883a 	mov	r4,r20
   83014:	1027883a 	mov	r19,r2
   83018:	1823883a 	mov	r17,r3
   8301c:	008d0080 	call	8d008 <__floatsidf>
   83020:	1009883a 	mov	r4,r2
   83024:	180b883a 	mov	r5,r3
   83028:	019427f4 	movhi	r6,20639
   8302c:	319e7ec4 	addi	r6,r6,31227
   83030:	01cff4f4 	movhi	r7,16339
   83034:	39d104c4 	addi	r7,r7,17427
   83038:	008bf000 	call	8bf00 <__muldf3>
   8303c:	9809883a 	mov	r4,r19
   83040:	880b883a 	mov	r5,r17
   83044:	100d883a 	mov	r6,r2
   83048:	180f883a 	mov	r7,r3
   8304c:	008aaa00 	call	8aaa0 <__adddf3>
   83050:	1009883a 	mov	r4,r2
   83054:	180b883a 	mov	r5,r3
   83058:	1027883a 	mov	r19,r2
   8305c:	1823883a 	mov	r17,r3
   83060:	008cf880 	call	8cf88 <__fixdfsi>
   83064:	9809883a 	mov	r4,r19
   83068:	880b883a 	mov	r5,r17
   8306c:	000d883a 	mov	r6,zero
   83070:	000f883a 	mov	r7,zero
   83074:	d8800615 	stw	r2,24(sp)
   83078:	008be140 	call	8be14 <__ledf2>
   8307c:	10028416 	blt	r2,zero,83a90 <_dtoa_r+0xc7c>
   83080:	d9000617 	ldw	r4,24(sp)
   83084:	00800584 	movi	r2,22
   83088:	11027236 	bltu	r2,r4,83a54 <_dtoa_r+0xc40>
   8308c:	200490fa 	slli	r2,r4,3
   83090:	00c00274 	movhi	r3,9
   83094:	18ff3304 	addi	r3,r3,-820
   83098:	d9800317 	ldw	r6,12(sp)
   8309c:	1885883a 	add	r2,r3,r2
   830a0:	11000017 	ldw	r4,0(r2)
   830a4:	11400117 	ldw	r5,4(r2)
   830a8:	900f883a 	mov	r7,r18
   830ac:	008bd3c0 	call	8bd3c <__gedf2>
   830b0:	0082930e 	bge	zero,r2,83b00 <_dtoa_r+0xcec>
   830b4:	d9800617 	ldw	r6,24(sp)
   830b8:	d8000e15 	stw	zero,56(sp)
   830bc:	31bfffc4 	addi	r6,r6,-1
   830c0:	d9800615 	stw	r6,24(sp)
   830c4:	ad2bc83a 	sub	r21,r21,r20
   830c8:	ad7fffc4 	addi	r21,r21,-1
   830cc:	a8026c16 	blt	r21,zero,83a80 <_dtoa_r+0xc6c>
   830d0:	d8000815 	stw	zero,32(sp)
   830d4:	d8800617 	ldw	r2,24(sp)
   830d8:	10026116 	blt	r2,zero,83a60 <_dtoa_r+0xc4c>
   830dc:	a8ab883a 	add	r21,r21,r2
   830e0:	d8800b15 	stw	r2,44(sp)
   830e4:	d8000a15 	stw	zero,40(sp)
   830e8:	d9c00417 	ldw	r7,16(sp)
   830ec:	00800244 	movi	r2,9
   830f0:	11c11636 	bltu	r2,r7,8354c <_dtoa_r+0x738>
   830f4:	00800144 	movi	r2,5
   830f8:	11c4cc0e 	bge	r2,r7,8442c <_dtoa_r+0x1618>
   830fc:	39ffff04 	addi	r7,r7,-4
   83100:	d9c00415 	stw	r7,16(sp)
   83104:	0027883a 	mov	r19,zero
   83108:	d8c00417 	ldw	r3,16(sp)
   8310c:	008000c4 	movi	r2,3
   83110:	1883aa26 	beq	r3,r2,83fbc <_dtoa_r+0x11a8>
   83114:	10c35b0e 	bge	r2,r3,83e84 <_dtoa_r+0x1070>
   83118:	d9000417 	ldw	r4,16(sp)
   8311c:	00800104 	movi	r2,4
   83120:	2082da26 	beq	r4,r2,83c8c <_dtoa_r+0xe78>
   83124:	00800144 	movi	r2,5
   83128:	2081091e 	bne	r4,r2,83550 <_dtoa_r+0x73c>
   8312c:	01c00044 	movi	r7,1
   83130:	d9c00c15 	stw	r7,48(sp)
   83134:	d8c02117 	ldw	r3,132(sp)
   83138:	d9000617 	ldw	r4,24(sp)
   8313c:	1907883a 	add	r3,r3,r4
   83140:	19800044 	addi	r6,r3,1
   83144:	d8c00d15 	stw	r3,52(sp)
   83148:	d9800915 	stw	r6,36(sp)
   8314c:	0183a90e 	bge	zero,r6,83ff4 <_dtoa_r+0x11e0>
   83150:	d9800917 	ldw	r6,36(sp)
   83154:	80001115 	stw	zero,68(r16)
   83158:	008005c4 	movi	r2,23
   8315c:	1184b52e 	bgeu	r2,r6,84434 <_dtoa_r+0x1620>
   83160:	00c00044 	movi	r3,1
   83164:	00800104 	movi	r2,4
   83168:	1085883a 	add	r2,r2,r2
   8316c:	11000504 	addi	r4,r2,20
   83170:	180b883a 	mov	r5,r3
   83174:	18c00044 	addi	r3,r3,1
   83178:	313ffb2e 	bgeu	r6,r4,83168 <_dtoa_r+0x354>
   8317c:	81401115 	stw	r5,68(r16)
   83180:	3023883a 	mov	r17,r6
   83184:	8009883a 	mov	r4,r16
   83188:	00863100 	call	86310 <_Balloc>
   8318c:	d8800715 	stw	r2,28(sp)
   83190:	80801015 	stw	r2,64(r16)
   83194:	00800384 	movi	r2,14
   83198:	1440f936 	bltu	r2,r17,83580 <_dtoa_r+0x76c>
   8319c:	9800f826 	beq	r19,zero,83580 <_dtoa_r+0x76c>
   831a0:	d9c00617 	ldw	r7,24(sp)
   831a4:	01c39c0e 	bge	zero,r7,84018 <_dtoa_r+0x1204>
   831a8:	388003cc 	andi	r2,r7,15
   831ac:	100490fa 	slli	r2,r2,3
   831b0:	382dd13a 	srai	r22,r7,4
   831b4:	00c00274 	movhi	r3,9
   831b8:	18ff3304 	addi	r3,r3,-820
   831bc:	1885883a 	add	r2,r3,r2
   831c0:	b0c0040c 	andi	r3,r22,16
   831c4:	12800017 	ldw	r10,0(r2)
   831c8:	12400117 	ldw	r9,4(r2)
   831cc:	18038526 	beq	r3,zero,83fe4 <_dtoa_r+0x11d0>
   831d0:	00800274 	movhi	r2,9
   831d4:	10bf2904 	addi	r2,r2,-860
   831d8:	11800817 	ldw	r6,32(r2)
   831dc:	11c00917 	ldw	r7,36(r2)
   831e0:	d9000317 	ldw	r4,12(sp)
   831e4:	900b883a 	mov	r5,r18
   831e8:	da401515 	stw	r9,84(sp)
   831ec:	da801615 	stw	r10,88(sp)
   831f0:	008b31c0 	call	8b31c <__divdf3>
   831f4:	da401517 	ldw	r9,84(sp)
   831f8:	da801617 	ldw	r10,88(sp)
   831fc:	1027883a 	mov	r19,r2
   83200:	1829883a 	mov	r20,r3
   83204:	b58003cc 	andi	r22,r22,15
   83208:	044000c4 	movi	r17,3
   8320c:	b0001126 	beq	r22,zero,83254 <_dtoa_r+0x440>
   83210:	05c00274 	movhi	r23,9
   83214:	bdff2904 	addi	r23,r23,-860
   83218:	5005883a 	mov	r2,r10
   8321c:	4807883a 	mov	r3,r9
   83220:	b180004c 	andi	r6,r22,1
   83224:	1009883a 	mov	r4,r2
   83228:	b02dd07a 	srai	r22,r22,1
   8322c:	180b883a 	mov	r5,r3
   83230:	30000426 	beq	r6,zero,83244 <_dtoa_r+0x430>
   83234:	b9800017 	ldw	r6,0(r23)
   83238:	b9c00117 	ldw	r7,4(r23)
   8323c:	8c400044 	addi	r17,r17,1
   83240:	008bf000 	call	8bf00 <__muldf3>
   83244:	bdc00204 	addi	r23,r23,8
   83248:	b03ff51e 	bne	r22,zero,83220 <_dtoa_r+0x40c>
   8324c:	1015883a 	mov	r10,r2
   83250:	1813883a 	mov	r9,r3
   83254:	9809883a 	mov	r4,r19
   83258:	a00b883a 	mov	r5,r20
   8325c:	500d883a 	mov	r6,r10
   83260:	480f883a 	mov	r7,r9
   83264:	008b31c0 	call	8b31c <__divdf3>
   83268:	1027883a 	mov	r19,r2
   8326c:	1829883a 	mov	r20,r3
   83270:	d8c00e17 	ldw	r3,56(sp)
   83274:	18000626 	beq	r3,zero,83290 <_dtoa_r+0x47c>
   83278:	9809883a 	mov	r4,r19
   8327c:	a00b883a 	mov	r5,r20
   83280:	000d883a 	mov	r6,zero
   83284:	01cffc34 	movhi	r7,16368
   83288:	008be140 	call	8be14 <__ledf2>
   8328c:	10041516 	blt	r2,zero,842e4 <_dtoa_r+0x14d0>
   83290:	8809883a 	mov	r4,r17
   83294:	008d0080 	call	8d008 <__floatsidf>
   83298:	1009883a 	mov	r4,r2
   8329c:	180b883a 	mov	r5,r3
   832a0:	980d883a 	mov	r6,r19
   832a4:	a00f883a 	mov	r7,r20
   832a8:	008bf000 	call	8bf00 <__muldf3>
   832ac:	1009883a 	mov	r4,r2
   832b0:	180b883a 	mov	r5,r3
   832b4:	000d883a 	mov	r6,zero
   832b8:	01d00734 	movhi	r7,16412
   832bc:	008aaa00 	call	8aaa0 <__adddf3>
   832c0:	1023883a 	mov	r17,r2
   832c4:	d8800917 	ldw	r2,36(sp)
   832c8:	05bf3034 	movhi	r22,64704
   832cc:	1daf883a 	add	r23,r3,r22
   832d0:	10031e26 	beq	r2,zero,83f4c <_dtoa_r+0x1138>
   832d4:	d8c00617 	ldw	r3,24(sp)
   832d8:	dac00917 	ldw	r11,36(sp)
   832dc:	d8c01315 	stw	r3,76(sp)
   832e0:	d9000c17 	ldw	r4,48(sp)
   832e4:	20039626 	beq	r4,zero,84140 <_dtoa_r+0x132c>
   832e8:	58bfffc4 	addi	r2,r11,-1
   832ec:	100490fa 	slli	r2,r2,3
   832f0:	00c00274 	movhi	r3,9
   832f4:	18ff3304 	addi	r3,r3,-820
   832f8:	0009883a 	mov	r4,zero
   832fc:	1885883a 	add	r2,r3,r2
   83300:	11800017 	ldw	r6,0(r2)
   83304:	11c00117 	ldw	r7,4(r2)
   83308:	d8800717 	ldw	r2,28(sp)
   8330c:	014ff834 	movhi	r5,16352
   83310:	dac01615 	stw	r11,88(sp)
   83314:	15800044 	addi	r22,r2,1
   83318:	008b31c0 	call	8b31c <__divdf3>
   8331c:	880d883a 	mov	r6,r17
   83320:	b80f883a 	mov	r7,r23
   83324:	1009883a 	mov	r4,r2
   83328:	180b883a 	mov	r5,r3
   8332c:	008c7000 	call	8c700 <__subdf3>
   83330:	a00b883a 	mov	r5,r20
   83334:	9809883a 	mov	r4,r19
   83338:	102f883a 	mov	r23,r2
   8333c:	d8c01015 	stw	r3,64(sp)
   83340:	008cf880 	call	8cf88 <__fixdfsi>
   83344:	1009883a 	mov	r4,r2
   83348:	d8801515 	stw	r2,84(sp)
   8334c:	008d0080 	call	8d008 <__floatsidf>
   83350:	9809883a 	mov	r4,r19
   83354:	a00b883a 	mov	r5,r20
   83358:	100d883a 	mov	r6,r2
   8335c:	180f883a 	mov	r7,r3
   83360:	008c7000 	call	8c700 <__subdf3>
   83364:	da401517 	ldw	r9,84(sp)
   83368:	1827883a 	mov	r19,r3
   8336c:	d8c00717 	ldw	r3,28(sp)
   83370:	d9401017 	ldw	r5,64(sp)
   83374:	4a400c04 	addi	r9,r9,48
   83378:	1023883a 	mov	r17,r2
   8337c:	1a400005 	stb	r9,0(r3)
   83380:	b809883a 	mov	r4,r23
   83384:	880d883a 	mov	r6,r17
   83388:	980f883a 	mov	r7,r19
   8338c:	4829883a 	mov	r20,r9
   83390:	008bd3c0 	call	8bd3c <__gedf2>
   83394:	00842216 	blt	zero,r2,84420 <_dtoa_r+0x160c>
   83398:	0009883a 	mov	r4,zero
   8339c:	014ffc34 	movhi	r5,16368
   833a0:	880d883a 	mov	r6,r17
   833a4:	980f883a 	mov	r7,r19
   833a8:	008c7000 	call	8c700 <__subdf3>
   833ac:	d9401017 	ldw	r5,64(sp)
   833b0:	b809883a 	mov	r4,r23
   833b4:	100d883a 	mov	r6,r2
   833b8:	180f883a 	mov	r7,r3
   833bc:	008bd3c0 	call	8bd3c <__gedf2>
   833c0:	dac01617 	ldw	r11,88(sp)
   833c4:	00841316 	blt	zero,r2,84414 <_dtoa_r+0x1600>
   833c8:	00800044 	movi	r2,1
   833cc:	12c06c0e 	bge	r2,r11,83580 <_dtoa_r+0x76c>
   833d0:	d9000717 	ldw	r4,28(sp)
   833d4:	dd401215 	stw	r21,72(sp)
   833d8:	dc001115 	stw	r16,68(sp)
   833dc:	22d7883a 	add	r11,r4,r11
   833e0:	dc801415 	stw	r18,80(sp)
   833e4:	582b883a 	mov	r21,r11
   833e8:	b021883a 	mov	r16,r22
   833ec:	dc801017 	ldw	r18,64(sp)
   833f0:	00000906 	br	83418 <_dtoa_r+0x604>
   833f4:	008c7000 	call	8c700 <__subdf3>
   833f8:	1009883a 	mov	r4,r2
   833fc:	180b883a 	mov	r5,r3
   83400:	b80d883a 	mov	r6,r23
   83404:	900f883a 	mov	r7,r18
   83408:	008be140 	call	8be14 <__ledf2>
   8340c:	1003ea16 	blt	r2,zero,843b8 <_dtoa_r+0x15a4>
   83410:	b543ed26 	beq	r22,r21,843c8 <_dtoa_r+0x15b4>
   83414:	b021883a 	mov	r16,r22
   83418:	b809883a 	mov	r4,r23
   8341c:	900b883a 	mov	r5,r18
   83420:	000d883a 	mov	r6,zero
   83424:	01d00934 	movhi	r7,16420
   83428:	008bf000 	call	8bf00 <__muldf3>
   8342c:	000d883a 	mov	r6,zero
   83430:	01d00934 	movhi	r7,16420
   83434:	8809883a 	mov	r4,r17
   83438:	980b883a 	mov	r5,r19
   8343c:	102f883a 	mov	r23,r2
   83440:	1825883a 	mov	r18,r3
   83444:	008bf000 	call	8bf00 <__muldf3>
   83448:	180b883a 	mov	r5,r3
   8344c:	1009883a 	mov	r4,r2
   83450:	1823883a 	mov	r17,r3
   83454:	1027883a 	mov	r19,r2
   83458:	008cf880 	call	8cf88 <__fixdfsi>
   8345c:	1009883a 	mov	r4,r2
   83460:	1029883a 	mov	r20,r2
   83464:	008d0080 	call	8d008 <__floatsidf>
   83468:	9809883a 	mov	r4,r19
   8346c:	880b883a 	mov	r5,r17
   83470:	100d883a 	mov	r6,r2
   83474:	180f883a 	mov	r7,r3
   83478:	008c7000 	call	8c700 <__subdf3>
   8347c:	a5000c04 	addi	r20,r20,48
   83480:	1009883a 	mov	r4,r2
   83484:	180b883a 	mov	r5,r3
   83488:	b80d883a 	mov	r6,r23
   8348c:	900f883a 	mov	r7,r18
   83490:	85000005 	stb	r20,0(r16)
   83494:	1023883a 	mov	r17,r2
   83498:	1827883a 	mov	r19,r3
   8349c:	008be140 	call	8be14 <__ledf2>
   834a0:	b5800044 	addi	r22,r22,1
   834a4:	0009883a 	mov	r4,zero
   834a8:	014ffc34 	movhi	r5,16368
   834ac:	880d883a 	mov	r6,r17
   834b0:	980f883a 	mov	r7,r19
   834b4:	103fcf0e 	bge	r2,zero,833f4 <_dtoa_r+0x5e0>
   834b8:	d8c01317 	ldw	r3,76(sp)
   834bc:	dc001117 	ldw	r16,68(sp)
   834c0:	d8c00615 	stw	r3,24(sp)
   834c4:	8009883a 	mov	r4,r16
   834c8:	e00b883a 	mov	r5,fp
   834cc:	00863b80 	call	863b8 <_Bfree>
   834d0:	d9800617 	ldw	r6,24(sp)
   834d4:	d9c02217 	ldw	r7,136(sp)
   834d8:	b0000005 	stb	zero,0(r22)
   834dc:	30800044 	addi	r2,r6,1
   834e0:	38800015 	stw	r2,0(r7)
   834e4:	d8802417 	ldw	r2,144(sp)
   834e8:	10026426 	beq	r2,zero,83e7c <_dtoa_r+0x1068>
   834ec:	15800015 	stw	r22,0(r2)
   834f0:	d8800717 	ldw	r2,28(sp)
   834f4:	003e7606 	br	82ed0 <_dtoa_r+0xbc>
   834f8:	00800434 	movhi	r2,16
   834fc:	10bfffc4 	addi	r2,r2,-1
   83500:	88a2703a 	and	r17,r17,r2
   83504:	883e831e 	bne	r17,zero,82f14 <_dtoa_r+0x100>
   83508:	00800274 	movhi	r2,9
   8350c:	10bf1504 	addi	r2,r2,-940
   83510:	003e8206 	br	82f1c <_dtoa_r+0x108>
   83514:	10c00204 	addi	r3,r2,8
   83518:	003e8506 	br	82f30 <_dtoa_r+0x11c>
   8351c:	01400434 	movhi	r5,16
   83520:	297fffc4 	addi	r5,r5,-1
   83524:	914a703a 	and	r5,r18,r5
   83528:	d9000317 	ldw	r4,12(sp)
   8352c:	294ffc34 	orhi	r5,r5,16368
   83530:	a53f0044 	addi	r20,r20,-1023
   83534:	dd400217 	ldw	r21,8(sp)
   83538:	d8000f15 	stw	zero,60(sp)
   8353c:	003ea306 	br	82fcc <_dtoa_r+0x1b8>
   83540:	00800274 	movhi	r2,9
   83544:	10bf0c04 	addi	r2,r2,-976
   83548:	003e6106 	br	82ed0 <_dtoa_r+0xbc>
   8354c:	d8000415 	stw	zero,16(sp)
   83550:	8009883a 	mov	r4,r16
   83554:	80001115 	stw	zero,68(r16)
   83558:	000b883a 	mov	r5,zero
   8355c:	00863100 	call	86310 <_Balloc>
   83560:	00ffffc4 	movi	r3,-1
   83564:	01000044 	movi	r4,1
   83568:	d8800715 	stw	r2,28(sp)
   8356c:	d8c00d15 	stw	r3,52(sp)
   83570:	80801015 	stw	r2,64(r16)
   83574:	d8002115 	stw	zero,132(sp)
   83578:	d8c00915 	stw	r3,36(sp)
   8357c:	d9000c15 	stw	r4,48(sp)
   83580:	d8800117 	ldw	r2,4(sp)
   83584:	10008e16 	blt	r2,zero,837c0 <_dtoa_r+0x9ac>
   83588:	d9000617 	ldw	r4,24(sp)
   8358c:	00c00384 	movi	r3,14
   83590:	19008b16 	blt	r3,r4,837c0 <_dtoa_r+0x9ac>
   83594:	200490fa 	slli	r2,r4,3
   83598:	d9802117 	ldw	r6,132(sp)
   8359c:	00c00274 	movhi	r3,9
   835a0:	18ff3304 	addi	r3,r3,-820
   835a4:	1885883a 	add	r2,r3,r2
   835a8:	14400017 	ldw	r17,0(r2)
   835ac:	14c00117 	ldw	r19,4(r2)
   835b0:	3001be16 	blt	r6,zero,83cac <_dtoa_r+0xe98>
   835b4:	d9000317 	ldw	r4,12(sp)
   835b8:	880d883a 	mov	r6,r17
   835bc:	980f883a 	mov	r7,r19
   835c0:	900b883a 	mov	r5,r18
   835c4:	008b31c0 	call	8b31c <__divdf3>
   835c8:	180b883a 	mov	r5,r3
   835cc:	1009883a 	mov	r4,r2
   835d0:	008cf880 	call	8cf88 <__fixdfsi>
   835d4:	1009883a 	mov	r4,r2
   835d8:	102f883a 	mov	r23,r2
   835dc:	008d0080 	call	8d008 <__floatsidf>
   835e0:	1009883a 	mov	r4,r2
   835e4:	180b883a 	mov	r5,r3
   835e8:	880d883a 	mov	r6,r17
   835ec:	980f883a 	mov	r7,r19
   835f0:	008bf000 	call	8bf00 <__muldf3>
   835f4:	d9000317 	ldw	r4,12(sp)
   835f8:	900b883a 	mov	r5,r18
   835fc:	100d883a 	mov	r6,r2
   83600:	180f883a 	mov	r7,r3
   83604:	008c7000 	call	8c700 <__subdf3>
   83608:	d9c00717 	ldw	r7,28(sp)
   8360c:	1009883a 	mov	r4,r2
   83610:	b8800c04 	addi	r2,r23,48
   83614:	38800005 	stb	r2,0(r7)
   83618:	3d800044 	addi	r22,r7,1
   8361c:	d9c00917 	ldw	r7,36(sp)
   83620:	01800044 	movi	r6,1
   83624:	180b883a 	mov	r5,r3
   83628:	2005883a 	mov	r2,r4
   8362c:	39803e26 	beq	r7,r6,83728 <_dtoa_r+0x914>
   83630:	000d883a 	mov	r6,zero
   83634:	01d00934 	movhi	r7,16420
   83638:	008bf000 	call	8bf00 <__muldf3>
   8363c:	1009883a 	mov	r4,r2
   83640:	180b883a 	mov	r5,r3
   83644:	000d883a 	mov	r6,zero
   83648:	000f883a 	mov	r7,zero
   8364c:	1029883a 	mov	r20,r2
   83650:	182b883a 	mov	r21,r3
   83654:	008bcb80 	call	8bcb8 <__eqdf2>
   83658:	103f9a26 	beq	r2,zero,834c4 <_dtoa_r+0x6b0>
   8365c:	d8c00717 	ldw	r3,28(sp)
   83660:	d9000917 	ldw	r4,36(sp)
   83664:	b025883a 	mov	r18,r22
   83668:	df000415 	stw	fp,16(sp)
   8366c:	1905883a 	add	r2,r3,r4
   83670:	15ffffc4 	addi	r23,r2,-1
   83674:	dc000315 	stw	r16,12(sp)
   83678:	00000a06 	br	836a4 <_dtoa_r+0x890>
   8367c:	008bf000 	call	8bf00 <__muldf3>
   83680:	1009883a 	mov	r4,r2
   83684:	180b883a 	mov	r5,r3
   83688:	000d883a 	mov	r6,zero
   8368c:	000f883a 	mov	r7,zero
   83690:	1029883a 	mov	r20,r2
   83694:	182b883a 	mov	r21,r3
   83698:	008bcb80 	call	8bcb8 <__eqdf2>
   8369c:	10021926 	beq	r2,zero,83f04 <_dtoa_r+0x10f0>
   836a0:	e025883a 	mov	r18,fp
   836a4:	880d883a 	mov	r6,r17
   836a8:	980f883a 	mov	r7,r19
   836ac:	a009883a 	mov	r4,r20
   836b0:	a80b883a 	mov	r5,r21
   836b4:	008b31c0 	call	8b31c <__divdf3>
   836b8:	180b883a 	mov	r5,r3
   836bc:	1009883a 	mov	r4,r2
   836c0:	008cf880 	call	8cf88 <__fixdfsi>
   836c4:	1009883a 	mov	r4,r2
   836c8:	1021883a 	mov	r16,r2
   836cc:	008d0080 	call	8d008 <__floatsidf>
   836d0:	1009883a 	mov	r4,r2
   836d4:	180b883a 	mov	r5,r3
   836d8:	880d883a 	mov	r6,r17
   836dc:	980f883a 	mov	r7,r19
   836e0:	008bf000 	call	8bf00 <__muldf3>
   836e4:	a009883a 	mov	r4,r20
   836e8:	a80b883a 	mov	r5,r21
   836ec:	100d883a 	mov	r6,r2
   836f0:	180f883a 	mov	r7,r3
   836f4:	008c7000 	call	8c700 <__subdf3>
   836f8:	82800c04 	addi	r10,r16,48
   836fc:	97000044 	addi	fp,r18,1
   83700:	92800005 	stb	r10,0(r18)
   83704:	000d883a 	mov	r6,zero
   83708:	01d00934 	movhi	r7,16420
   8370c:	1009883a 	mov	r4,r2
   83710:	180b883a 	mov	r5,r3
   83714:	e02d883a 	mov	r22,fp
   83718:	95ffd81e 	bne	r18,r23,8367c <_dtoa_r+0x868>
   8371c:	802f883a 	mov	r23,r16
   83720:	df000417 	ldw	fp,16(sp)
   83724:	dc000317 	ldw	r16,12(sp)
   83728:	1009883a 	mov	r4,r2
   8372c:	180b883a 	mov	r5,r3
   83730:	100d883a 	mov	r6,r2
   83734:	180f883a 	mov	r7,r3
   83738:	008aaa00 	call	8aaa0 <__adddf3>
   8373c:	8809883a 	mov	r4,r17
   83740:	980b883a 	mov	r5,r19
   83744:	100d883a 	mov	r6,r2
   83748:	180f883a 	mov	r7,r3
   8374c:	1025883a 	mov	r18,r2
   83750:	1829883a 	mov	r20,r3
   83754:	008be140 	call	8be14 <__ledf2>
   83758:	10000816 	blt	r2,zero,8377c <_dtoa_r+0x968>
   8375c:	8809883a 	mov	r4,r17
   83760:	980b883a 	mov	r5,r19
   83764:	900d883a 	mov	r6,r18
   83768:	a00f883a 	mov	r7,r20
   8376c:	008bcb80 	call	8bcb8 <__eqdf2>
   83770:	103f541e 	bne	r2,zero,834c4 <_dtoa_r+0x6b0>
   83774:	bdc0004c 	andi	r23,r23,1
   83778:	b83f5226 	beq	r23,zero,834c4 <_dtoa_r+0x6b0>
   8377c:	b53fffc3 	ldbu	r20,-1(r22)
   83780:	b0ffff84 	addi	r3,r22,-2
   83784:	01400e44 	movi	r5,57
   83788:	d9800717 	ldw	r6,28(sp)
   8378c:	00000406 	br	837a0 <_dtoa_r+0x98c>
   83790:	30824326 	beq	r6,r2,840a0 <_dtoa_r+0x128c>
   83794:	1d000003 	ldbu	r20,0(r3)
   83798:	102d883a 	mov	r22,r2
   8379c:	18ffffc4 	addi	r3,r3,-1
   837a0:	a1003fcc 	andi	r4,r20,255
   837a4:	2100201c 	xori	r4,r4,128
   837a8:	213fe004 	addi	r4,r4,-128
   837ac:	b0bfffc4 	addi	r2,r22,-1
   837b0:	217ff726 	beq	r4,r5,83790 <_dtoa_r+0x97c>
   837b4:	a2400044 	addi	r9,r20,1
   837b8:	12400005 	stb	r9,0(r2)
   837bc:	003f4106 	br	834c4 <_dtoa_r+0x6b0>
   837c0:	d9000c17 	ldw	r4,48(sp)
   837c4:	2000be26 	beq	r4,zero,83ac0 <_dtoa_r+0xcac>
   837c8:	d9800417 	ldw	r6,16(sp)
   837cc:	00c00044 	movi	r3,1
   837d0:	19815e0e 	bge	r3,r6,83d4c <_dtoa_r+0xf38>
   837d4:	d8800917 	ldw	r2,36(sp)
   837d8:	d8c00a17 	ldw	r3,40(sp)
   837dc:	153fffc4 	addi	r20,r2,-1
   837e0:	1d01f816 	blt	r3,r20,83fc4 <_dtoa_r+0x11b0>
   837e4:	1d29c83a 	sub	r20,r3,r20
   837e8:	d9c00917 	ldw	r7,36(sp)
   837ec:	3802ad16 	blt	r7,zero,842a4 <_dtoa_r+0x1490>
   837f0:	dcc00817 	ldw	r19,32(sp)
   837f4:	d8800917 	ldw	r2,36(sp)
   837f8:	d8c00817 	ldw	r3,32(sp)
   837fc:	8009883a 	mov	r4,r16
   83800:	01400044 	movi	r5,1
   83804:	1887883a 	add	r3,r3,r2
   83808:	d8c00815 	stw	r3,32(sp)
   8380c:	a8ab883a 	add	r21,r21,r2
   83810:	00867400 	call	86740 <__i2b>
   83814:	1023883a 	mov	r17,r2
   83818:	98000826 	beq	r19,zero,8383c <_dtoa_r+0xa28>
   8381c:	0540070e 	bge	zero,r21,8383c <_dtoa_r+0xa28>
   83820:	a805883a 	mov	r2,r21
   83824:	9d411716 	blt	r19,r21,83c84 <_dtoa_r+0xe70>
   83828:	d9000817 	ldw	r4,32(sp)
   8382c:	98a7c83a 	sub	r19,r19,r2
   83830:	a8abc83a 	sub	r21,r21,r2
   83834:	2089c83a 	sub	r4,r4,r2
   83838:	d9000815 	stw	r4,32(sp)
   8383c:	d9800a17 	ldw	r6,40(sp)
   83840:	0180140e 	bge	zero,r6,83894 <_dtoa_r+0xa80>
   83844:	d9c00c17 	ldw	r7,48(sp)
   83848:	3801d626 	beq	r7,zero,83fa4 <_dtoa_r+0x1190>
   8384c:	05000e0e 	bge	zero,r20,83888 <_dtoa_r+0xa74>
   83850:	880b883a 	mov	r5,r17
   83854:	8009883a 	mov	r4,r16
   83858:	a00d883a 	mov	r6,r20
   8385c:	00869e80 	call	869e8 <__pow5mult>
   83860:	e00d883a 	mov	r6,fp
   83864:	8009883a 	mov	r4,r16
   83868:	100b883a 	mov	r5,r2
   8386c:	1023883a 	mov	r17,r2
   83870:	008677c0 	call	8677c <__multiply>
   83874:	102d883a 	mov	r22,r2
   83878:	e00b883a 	mov	r5,fp
   8387c:	8009883a 	mov	r4,r16
   83880:	00863b80 	call	863b8 <_Bfree>
   83884:	b039883a 	mov	fp,r22
   83888:	d8800a17 	ldw	r2,40(sp)
   8388c:	150dc83a 	sub	r6,r2,r20
   83890:	30011f1e 	bne	r6,zero,83d10 <_dtoa_r+0xefc>
   83894:	8009883a 	mov	r4,r16
   83898:	01400044 	movi	r5,1
   8389c:	00867400 	call	86740 <__i2b>
   838a0:	d8c00b17 	ldw	r3,44(sp)
   838a4:	1029883a 	mov	r20,r2
   838a8:	00c0050e 	bge	zero,r3,838c0 <_dtoa_r+0xaac>
   838ac:	8009883a 	mov	r4,r16
   838b0:	100b883a 	mov	r5,r2
   838b4:	180d883a 	mov	r6,r3
   838b8:	00869e80 	call	869e8 <__pow5mult>
   838bc:	1029883a 	mov	r20,r2
   838c0:	d9000417 	ldw	r4,16(sp)
   838c4:	00800044 	movi	r2,1
   838c8:	1100e00e 	bge	r2,r4,83c4c <_dtoa_r+0xe38>
   838cc:	0025883a 	mov	r18,zero
   838d0:	d8800b17 	ldw	r2,44(sp)
   838d4:	10015f1e 	bne	r2,zero,83e54 <_dtoa_r+0x1040>
   838d8:	00800044 	movi	r2,1
   838dc:	1545883a 	add	r2,r2,r21
   838e0:	108007cc 	andi	r2,r2,31
   838e4:	10007a26 	beq	r2,zero,83ad0 <_dtoa_r+0xcbc>
   838e8:	01000804 	movi	r4,32
   838ec:	2089c83a 	sub	r4,r4,r2
   838f0:	00c00104 	movi	r3,4
   838f4:	1902d20e 	bge	r3,r4,84440 <_dtoa_r+0x162c>
   838f8:	00c00704 	movi	r3,28
   838fc:	1885c83a 	sub	r2,r3,r2
   83900:	d8c00817 	ldw	r3,32(sp)
   83904:	98a7883a 	add	r19,r19,r2
   83908:	a8ab883a 	add	r21,r21,r2
   8390c:	1887883a 	add	r3,r3,r2
   83910:	d8c00815 	stw	r3,32(sp)
   83914:	d9800817 	ldw	r6,32(sp)
   83918:	0180040e 	bge	zero,r6,8392c <_dtoa_r+0xb18>
   8391c:	e00b883a 	mov	r5,fp
   83920:	8009883a 	mov	r4,r16
   83924:	0086b300 	call	86b30 <__lshift>
   83928:	1039883a 	mov	fp,r2
   8392c:	0540050e 	bge	zero,r21,83944 <_dtoa_r+0xb30>
   83930:	a00b883a 	mov	r5,r20
   83934:	8009883a 	mov	r4,r16
   83938:	a80d883a 	mov	r6,r21
   8393c:	0086b300 	call	86b30 <__lshift>
   83940:	1029883a 	mov	r20,r2
   83944:	d9c00e17 	ldw	r7,56(sp)
   83948:	3801301e 	bne	r7,zero,83e0c <_dtoa_r+0xff8>
   8394c:	d9c00917 	ldw	r7,36(sp)
   83950:	01c1500e 	bge	zero,r7,83e94 <_dtoa_r+0x1080>
   83954:	d8800c17 	ldw	r2,48(sp)
   83958:	10006b1e 	bne	r2,zero,83b08 <_dtoa_r+0xcf4>
   8395c:	dc800717 	ldw	r18,28(sp)
   83960:	dcc00917 	ldw	r19,36(sp)
   83964:	902b883a 	mov	r21,r18
   83968:	00000206 	br	83974 <_dtoa_r+0xb60>
   8396c:	00863e00 	call	863e0 <__multadd>
   83970:	1039883a 	mov	fp,r2
   83974:	e009883a 	mov	r4,fp
   83978:	a00b883a 	mov	r5,r20
   8397c:	0082bec0 	call	82bec <quorem>
   83980:	10800c04 	addi	r2,r2,48
   83984:	90800005 	stb	r2,0(r18)
   83988:	94800044 	addi	r18,r18,1
   8398c:	9547c83a 	sub	r3,r18,r21
   83990:	8009883a 	mov	r4,r16
   83994:	e00b883a 	mov	r5,fp
   83998:	01800284 	movi	r6,10
   8399c:	000f883a 	mov	r7,zero
   839a0:	1cfff216 	blt	r3,r19,8396c <_dtoa_r+0xb58>
   839a4:	102f883a 	mov	r23,r2
   839a8:	d8800917 	ldw	r2,36(sp)
   839ac:	0082410e 	bge	zero,r2,842b4 <_dtoa_r+0x14a0>
   839b0:	d9000717 	ldw	r4,28(sp)
   839b4:	002b883a 	mov	r21,zero
   839b8:	20ad883a 	add	r22,r4,r2
   839bc:	e00b883a 	mov	r5,fp
   839c0:	8009883a 	mov	r4,r16
   839c4:	01800044 	movi	r6,1
   839c8:	0086b300 	call	86b30 <__lshift>
   839cc:	1009883a 	mov	r4,r2
   839d0:	a00b883a 	mov	r5,r20
   839d4:	1039883a 	mov	fp,r2
   839d8:	0086c800 	call	86c80 <__mcmp>
   839dc:	0080d10e 	bge	zero,r2,83d24 <_dtoa_r+0xf10>
   839e0:	b13fffc3 	ldbu	r4,-1(r22)
   839e4:	b0ffff84 	addi	r3,r22,-2
   839e8:	01800e44 	movi	r6,57
   839ec:	d9c00717 	ldw	r7,28(sp)
   839f0:	00000406 	br	83a04 <_dtoa_r+0xbf0>
   839f4:	38813c26 	beq	r7,r2,83ee8 <_dtoa_r+0x10d4>
   839f8:	19000003 	ldbu	r4,0(r3)
   839fc:	102d883a 	mov	r22,r2
   83a00:	18ffffc4 	addi	r3,r3,-1
   83a04:	21403fcc 	andi	r5,r4,255
   83a08:	2940201c 	xori	r5,r5,128
   83a0c:	297fe004 	addi	r5,r5,-128
   83a10:	b0bfffc4 	addi	r2,r22,-1
   83a14:	29bff726 	beq	r5,r6,839f4 <_dtoa_r+0xbe0>
   83a18:	21000044 	addi	r4,r4,1
   83a1c:	11000005 	stb	r4,0(r2)
   83a20:	8009883a 	mov	r4,r16
   83a24:	a00b883a 	mov	r5,r20
   83a28:	00863b80 	call	863b8 <_Bfree>
   83a2c:	883ea526 	beq	r17,zero,834c4 <_dtoa_r+0x6b0>
   83a30:	a8000426 	beq	r21,zero,83a44 <_dtoa_r+0xc30>
   83a34:	ac400326 	beq	r21,r17,83a44 <_dtoa_r+0xc30>
   83a38:	8009883a 	mov	r4,r16
   83a3c:	a80b883a 	mov	r5,r21
   83a40:	00863b80 	call	863b8 <_Bfree>
   83a44:	8009883a 	mov	r4,r16
   83a48:	880b883a 	mov	r5,r17
   83a4c:	00863b80 	call	863b8 <_Bfree>
   83a50:	003e9c06 	br	834c4 <_dtoa_r+0x6b0>
   83a54:	01c00044 	movi	r7,1
   83a58:	d9c00e15 	stw	r7,56(sp)
   83a5c:	003d9906 	br	830c4 <_dtoa_r+0x2b0>
   83a60:	d8c00817 	ldw	r3,32(sp)
   83a64:	d9000617 	ldw	r4,24(sp)
   83a68:	d8000b15 	stw	zero,44(sp)
   83a6c:	1907c83a 	sub	r3,r3,r4
   83a70:	010dc83a 	sub	r6,zero,r4
   83a74:	d8c00815 	stw	r3,32(sp)
   83a78:	d9800a15 	stw	r6,40(sp)
   83a7c:	003d9a06 	br	830e8 <_dtoa_r+0x2d4>
   83a80:	056bc83a 	sub	r21,zero,r21
   83a84:	dd400815 	stw	r21,32(sp)
   83a88:	002b883a 	mov	r21,zero
   83a8c:	003d9106 	br	830d4 <_dtoa_r+0x2c0>
   83a90:	d9000617 	ldw	r4,24(sp)
   83a94:	008d0080 	call	8d008 <__floatsidf>
   83a98:	1009883a 	mov	r4,r2
   83a9c:	180b883a 	mov	r5,r3
   83aa0:	980d883a 	mov	r6,r19
   83aa4:	880f883a 	mov	r7,r17
   83aa8:	008bcb80 	call	8bcb8 <__eqdf2>
   83aac:	103d7426 	beq	r2,zero,83080 <_dtoa_r+0x26c>
   83ab0:	d8c00617 	ldw	r3,24(sp)
   83ab4:	18ffffc4 	addi	r3,r3,-1
   83ab8:	d8c00615 	stw	r3,24(sp)
   83abc:	003d7006 	br	83080 <_dtoa_r+0x26c>
   83ac0:	dd000a17 	ldw	r20,40(sp)
   83ac4:	dcc00817 	ldw	r19,32(sp)
   83ac8:	0023883a 	mov	r17,zero
   83acc:	003f5206 	br	83818 <_dtoa_r+0xa04>
   83ad0:	00800704 	movi	r2,28
   83ad4:	d9000817 	ldw	r4,32(sp)
   83ad8:	98a7883a 	add	r19,r19,r2
   83adc:	a8ab883a 	add	r21,r21,r2
   83ae0:	2089883a 	add	r4,r4,r2
   83ae4:	d9000815 	stw	r4,32(sp)
   83ae8:	003f8a06 	br	83914 <_dtoa_r+0xb00>
   83aec:	d9c00317 	ldw	r7,12(sp)
   83af0:	013efb84 	movi	r4,-1042
   83af4:	2509c83a 	sub	r4,r4,r20
   83af8:	3908983a 	sll	r4,r7,r4
   83afc:	003d2c06 	br	82fb0 <_dtoa_r+0x19c>
   83b00:	d8000e15 	stw	zero,56(sp)
   83b04:	003d6f06 	br	830c4 <_dtoa_r+0x2b0>
   83b08:	04c0050e 	bge	zero,r19,83b20 <_dtoa_r+0xd0c>
   83b0c:	880b883a 	mov	r5,r17
   83b10:	8009883a 	mov	r4,r16
   83b14:	980d883a 	mov	r6,r19
   83b18:	0086b300 	call	86b30 <__lshift>
   83b1c:	1023883a 	mov	r17,r2
   83b20:	9001681e 	bne	r18,zero,840c4 <_dtoa_r+0x12b0>
   83b24:	8827883a 	mov	r19,r17
   83b28:	d8c00717 	ldw	r3,28(sp)
   83b2c:	d9000917 	ldw	r4,36(sp)
   83b30:	1dffffc4 	addi	r23,r3,-1
   83b34:	1825883a 	mov	r18,r3
   83b38:	d8c00317 	ldw	r3,12(sp)
   83b3c:	b92f883a 	add	r23,r23,r4
   83b40:	ddc00515 	stw	r23,20(sp)
   83b44:	18c0004c 	andi	r3,r3,1
   83b48:	d8c00315 	stw	r3,12(sp)
   83b4c:	e009883a 	mov	r4,fp
   83b50:	a00b883a 	mov	r5,r20
   83b54:	0082bec0 	call	82bec <quorem>
   83b58:	e009883a 	mov	r4,fp
   83b5c:	880b883a 	mov	r5,r17
   83b60:	102d883a 	mov	r22,r2
   83b64:	0086c800 	call	86c80 <__mcmp>
   83b68:	8009883a 	mov	r4,r16
   83b6c:	a00b883a 	mov	r5,r20
   83b70:	980d883a 	mov	r6,r19
   83b74:	102b883a 	mov	r21,r2
   83b78:	0086ce00 	call	86ce0 <__mdiff>
   83b7c:	1007883a 	mov	r3,r2
   83b80:	10800317 	ldw	r2,12(r2)
   83b84:	b5c00c04 	addi	r23,r22,48
   83b88:	10009b1e 	bne	r2,zero,83df8 <_dtoa_r+0xfe4>
   83b8c:	180b883a 	mov	r5,r3
   83b90:	e009883a 	mov	r4,fp
   83b94:	d8c01515 	stw	r3,84(sp)
   83b98:	0086c800 	call	86c80 <__mcmp>
   83b9c:	d8c01517 	ldw	r3,84(sp)
   83ba0:	8009883a 	mov	r4,r16
   83ba4:	d8801515 	stw	r2,84(sp)
   83ba8:	180b883a 	mov	r5,r3
   83bac:	00863b80 	call	863b8 <_Bfree>
   83bb0:	d8801517 	ldw	r2,84(sp)
   83bb4:	1000041e 	bne	r2,zero,83bc8 <_dtoa_r+0xdb4>
   83bb8:	d9000417 	ldw	r4,16(sp)
   83bbc:	2000021e 	bne	r4,zero,83bc8 <_dtoa_r+0xdb4>
   83bc0:	d8c00317 	ldw	r3,12(sp)
   83bc4:	18007926 	beq	r3,zero,83dac <_dtoa_r+0xf98>
   83bc8:	a8006616 	blt	r21,zero,83d64 <_dtoa_r+0xf50>
   83bcc:	a800041e 	bne	r21,zero,83be0 <_dtoa_r+0xdcc>
   83bd0:	d9000417 	ldw	r4,16(sp)
   83bd4:	2000021e 	bne	r4,zero,83be0 <_dtoa_r+0xdcc>
   83bd8:	d8c00317 	ldw	r3,12(sp)
   83bdc:	18006126 	beq	r3,zero,83d64 <_dtoa_r+0xf50>
   83be0:	00814916 	blt	zero,r2,84108 <_dtoa_r+0x12f4>
   83be4:	d8c00517 	ldw	r3,20(sp)
   83be8:	95400044 	addi	r21,r18,1
   83bec:	95c00005 	stb	r23,0(r18)
   83bf0:	a82d883a 	mov	r22,r21
   83bf4:	90c14c26 	beq	r18,r3,84128 <_dtoa_r+0x1314>
   83bf8:	e00b883a 	mov	r5,fp
   83bfc:	8009883a 	mov	r4,r16
   83c00:	01800284 	movi	r6,10
   83c04:	000f883a 	mov	r7,zero
   83c08:	00863e00 	call	863e0 <__multadd>
   83c0c:	1039883a 	mov	fp,r2
   83c10:	8cc07026 	beq	r17,r19,83dd4 <_dtoa_r+0xfc0>
   83c14:	880b883a 	mov	r5,r17
   83c18:	01800284 	movi	r6,10
   83c1c:	000f883a 	mov	r7,zero
   83c20:	8009883a 	mov	r4,r16
   83c24:	00863e00 	call	863e0 <__multadd>
   83c28:	980b883a 	mov	r5,r19
   83c2c:	8009883a 	mov	r4,r16
   83c30:	01800284 	movi	r6,10
   83c34:	000f883a 	mov	r7,zero
   83c38:	1023883a 	mov	r17,r2
   83c3c:	00863e00 	call	863e0 <__multadd>
   83c40:	1027883a 	mov	r19,r2
   83c44:	a825883a 	mov	r18,r21
   83c48:	003fc006 	br	83b4c <_dtoa_r+0xd38>
   83c4c:	d9800317 	ldw	r6,12(sp)
   83c50:	303f1e1e 	bne	r6,zero,838cc <_dtoa_r+0xab8>
   83c54:	00c00434 	movhi	r3,16
   83c58:	18ffffc4 	addi	r3,r3,-1
   83c5c:	90c6703a 	and	r3,r18,r3
   83c60:	183f1a1e 	bne	r3,zero,838cc <_dtoa_r+0xab8>
   83c64:	949ffc2c 	andhi	r18,r18,32752
   83c68:	903f1826 	beq	r18,zero,838cc <_dtoa_r+0xab8>
   83c6c:	d9c00817 	ldw	r7,32(sp)
   83c70:	a8ab883a 	add	r21,r21,r2
   83c74:	1025883a 	mov	r18,r2
   83c78:	388f883a 	add	r7,r7,r2
   83c7c:	d9c00815 	stw	r7,32(sp)
   83c80:	003f1306 	br	838d0 <_dtoa_r+0xabc>
   83c84:	9805883a 	mov	r2,r19
   83c88:	003ee706 	br	83828 <_dtoa_r+0xa14>
   83c8c:	01800044 	movi	r6,1
   83c90:	d9800c15 	stw	r6,48(sp)
   83c94:	d8802117 	ldw	r2,132(sp)
   83c98:	0080da0e 	bge	zero,r2,84004 <_dtoa_r+0x11f0>
   83c9c:	100d883a 	mov	r6,r2
   83ca0:	d8800d15 	stw	r2,52(sp)
   83ca4:	d8800915 	stw	r2,36(sp)
   83ca8:	003d2a06 	br	83154 <_dtoa_r+0x340>
   83cac:	d8800917 	ldw	r2,36(sp)
   83cb0:	00be4016 	blt	zero,r2,835b4 <_dtoa_r+0x7a0>
   83cb4:	1000b81e 	bne	r2,zero,83f98 <_dtoa_r+0x1184>
   83cb8:	8809883a 	mov	r4,r17
   83cbc:	980b883a 	mov	r5,r19
   83cc0:	000d883a 	mov	r6,zero
   83cc4:	01d00534 	movhi	r7,16404
   83cc8:	008bf000 	call	8bf00 <__muldf3>
   83ccc:	d9800317 	ldw	r6,12(sp)
   83cd0:	1009883a 	mov	r4,r2
   83cd4:	180b883a 	mov	r5,r3
   83cd8:	900f883a 	mov	r7,r18
   83cdc:	008bd3c0 	call	8bd3c <__gedf2>
   83ce0:	0029883a 	mov	r20,zero
   83ce4:	0023883a 	mov	r17,zero
   83ce8:	10007716 	blt	r2,zero,83ec8 <_dtoa_r+0x10b4>
   83cec:	d9002117 	ldw	r4,132(sp)
   83cf0:	dd800717 	ldw	r22,28(sp)
   83cf4:	0108303a 	nor	r4,zero,r4
   83cf8:	d9000615 	stw	r4,24(sp)
   83cfc:	8009883a 	mov	r4,r16
   83d00:	a00b883a 	mov	r5,r20
   83d04:	00863b80 	call	863b8 <_Bfree>
   83d08:	883f4e1e 	bne	r17,zero,83a44 <_dtoa_r+0xc30>
   83d0c:	003ded06 	br	834c4 <_dtoa_r+0x6b0>
   83d10:	e00b883a 	mov	r5,fp
   83d14:	8009883a 	mov	r4,r16
   83d18:	00869e80 	call	869e8 <__pow5mult>
   83d1c:	1039883a 	mov	fp,r2
   83d20:	003edc06 	br	83894 <_dtoa_r+0xa80>
   83d24:	1000021e 	bne	r2,zero,83d30 <_dtoa_r+0xf1c>
   83d28:	ba40004c 	andi	r9,r23,1
   83d2c:	483f2c1e 	bne	r9,zero,839e0 <_dtoa_r+0xbcc>
   83d30:	01000c04 	movi	r4,48
   83d34:	00000106 	br	83d3c <_dtoa_r+0xf28>
   83d38:	102d883a 	mov	r22,r2
   83d3c:	b0bfffc4 	addi	r2,r22,-1
   83d40:	10c00007 	ldb	r3,0(r2)
   83d44:	193ffc26 	beq	r3,r4,83d38 <_dtoa_r+0xf24>
   83d48:	003f3506 	br	83a20 <_dtoa_r+0xc0c>
   83d4c:	d9c00f17 	ldw	r7,60(sp)
   83d50:	38015a26 	beq	r7,zero,842bc <_dtoa_r+0x14a8>
   83d54:	10810cc4 	addi	r2,r2,1075
   83d58:	dd000a17 	ldw	r20,40(sp)
   83d5c:	dcc00817 	ldw	r19,32(sp)
   83d60:	003ea506 	br	837f8 <_dtoa_r+0x9e4>
   83d64:	00800c0e 	bge	zero,r2,83d98 <_dtoa_r+0xf84>
   83d68:	e00b883a 	mov	r5,fp
   83d6c:	8009883a 	mov	r4,r16
   83d70:	01800044 	movi	r6,1
   83d74:	0086b300 	call	86b30 <__lshift>
   83d78:	1009883a 	mov	r4,r2
   83d7c:	a00b883a 	mov	r5,r20
   83d80:	1039883a 	mov	fp,r2
   83d84:	0086c800 	call	86c80 <__mcmp>
   83d88:	0081930e 	bge	zero,r2,843d8 <_dtoa_r+0x15c4>
   83d8c:	00800e44 	movi	r2,57
   83d90:	b8800a26 	beq	r23,r2,83dbc <_dtoa_r+0xfa8>
   83d94:	b5c00c44 	addi	r23,r22,49
   83d98:	882b883a 	mov	r21,r17
   83d9c:	95800044 	addi	r22,r18,1
   83da0:	95c00005 	stb	r23,0(r18)
   83da4:	9823883a 	mov	r17,r19
   83da8:	003f1d06 	br	83a20 <_dtoa_r+0xc0c>
   83dac:	00800e44 	movi	r2,57
   83db0:	b8800226 	beq	r23,r2,83dbc <_dtoa_r+0xfa8>
   83db4:	057ff716 	blt	zero,r21,83d94 <_dtoa_r+0xf80>
   83db8:	003ff706 	br	83d98 <_dtoa_r+0xf84>
   83dbc:	01000e44 	movi	r4,57
   83dc0:	882b883a 	mov	r21,r17
   83dc4:	95800044 	addi	r22,r18,1
   83dc8:	91000005 	stb	r4,0(r18)
   83dcc:	9823883a 	mov	r17,r19
   83dd0:	003f0406 	br	839e4 <_dtoa_r+0xbd0>
   83dd4:	880b883a 	mov	r5,r17
   83dd8:	8009883a 	mov	r4,r16
   83ddc:	01800284 	movi	r6,10
   83de0:	000f883a 	mov	r7,zero
   83de4:	00863e00 	call	863e0 <__multadd>
   83de8:	1023883a 	mov	r17,r2
   83dec:	1027883a 	mov	r19,r2
   83df0:	a825883a 	mov	r18,r21
   83df4:	003f5506 	br	83b4c <_dtoa_r+0xd38>
   83df8:	8009883a 	mov	r4,r16
   83dfc:	180b883a 	mov	r5,r3
   83e00:	00863b80 	call	863b8 <_Bfree>
   83e04:	00800044 	movi	r2,1
   83e08:	003f6f06 	br	83bc8 <_dtoa_r+0xdb4>
   83e0c:	e009883a 	mov	r4,fp
   83e10:	a00b883a 	mov	r5,r20
   83e14:	0086c800 	call	86c80 <__mcmp>
   83e18:	103ecc0e 	bge	r2,zero,8394c <_dtoa_r+0xb38>
   83e1c:	e00b883a 	mov	r5,fp
   83e20:	8009883a 	mov	r4,r16
   83e24:	01800284 	movi	r6,10
   83e28:	000f883a 	mov	r7,zero
   83e2c:	00863e00 	call	863e0 <__multadd>
   83e30:	1039883a 	mov	fp,r2
   83e34:	d8800617 	ldw	r2,24(sp)
   83e38:	d8c00c17 	ldw	r3,48(sp)
   83e3c:	10bfffc4 	addi	r2,r2,-1
   83e40:	d8800615 	stw	r2,24(sp)
   83e44:	1801681e 	bne	r3,zero,843e8 <_dtoa_r+0x15d4>
   83e48:	d9800d17 	ldw	r6,52(sp)
   83e4c:	d9800915 	stw	r6,36(sp)
   83e50:	003ebe06 	br	8394c <_dtoa_r+0xb38>
   83e54:	a0800417 	ldw	r2,16(r20)
   83e58:	10800104 	addi	r2,r2,4
   83e5c:	1085883a 	add	r2,r2,r2
   83e60:	1085883a 	add	r2,r2,r2
   83e64:	a085883a 	add	r2,r20,r2
   83e68:	11000017 	ldw	r4,0(r2)
   83e6c:	00866280 	call	86628 <__hi0bits>
   83e70:	00c00804 	movi	r3,32
   83e74:	1885c83a 	sub	r2,r3,r2
   83e78:	003e9806 	br	838dc <_dtoa_r+0xac8>
   83e7c:	d8800717 	ldw	r2,28(sp)
   83e80:	003c1306 	br	82ed0 <_dtoa_r+0xbc>
   83e84:	00800084 	movi	r2,2
   83e88:	18bdb11e 	bne	r3,r2,83550 <_dtoa_r+0x73c>
   83e8c:	d8000c15 	stw	zero,48(sp)
   83e90:	003f8006 	br	83c94 <_dtoa_r+0xe80>
   83e94:	d8c00417 	ldw	r3,16(sp)
   83e98:	00800084 	movi	r2,2
   83e9c:	10fead0e 	bge	r2,r3,83954 <_dtoa_r+0xb40>
   83ea0:	383f921e 	bne	r7,zero,83cec <_dtoa_r+0xed8>
   83ea4:	a00b883a 	mov	r5,r20
   83ea8:	8009883a 	mov	r4,r16
   83eac:	01800144 	movi	r6,5
   83eb0:	00863e00 	call	863e0 <__multadd>
   83eb4:	e009883a 	mov	r4,fp
   83eb8:	100b883a 	mov	r5,r2
   83ebc:	1029883a 	mov	r20,r2
   83ec0:	0086c800 	call	86c80 <__mcmp>
   83ec4:	00bf890e 	bge	zero,r2,83cec <_dtoa_r+0xed8>
   83ec8:	d9c00617 	ldw	r7,24(sp)
   83ecc:	d9800717 	ldw	r6,28(sp)
   83ed0:	00800c44 	movi	r2,49
   83ed4:	39c00044 	addi	r7,r7,1
   83ed8:	35800044 	addi	r22,r6,1
   83edc:	30800005 	stb	r2,0(r6)
   83ee0:	d9c00615 	stw	r7,24(sp)
   83ee4:	003f8506 	br	83cfc <_dtoa_r+0xee8>
   83ee8:	d9800617 	ldw	r6,24(sp)
   83eec:	d9c00717 	ldw	r7,28(sp)
   83ef0:	00800c44 	movi	r2,49
   83ef4:	31800044 	addi	r6,r6,1
   83ef8:	d9800615 	stw	r6,24(sp)
   83efc:	38800005 	stb	r2,0(r7)
   83f00:	003ec706 	br	83a20 <_dtoa_r+0xc0c>
   83f04:	df000417 	ldw	fp,16(sp)
   83f08:	dc000317 	ldw	r16,12(sp)
   83f0c:	003d6d06 	br	834c4 <_dtoa_r+0x6b0>
   83f10:	8809883a 	mov	r4,r17
   83f14:	008d0080 	call	8d008 <__floatsidf>
   83f18:	9809883a 	mov	r4,r19
   83f1c:	a00b883a 	mov	r5,r20
   83f20:	100d883a 	mov	r6,r2
   83f24:	180f883a 	mov	r7,r3
   83f28:	008bf000 	call	8bf00 <__muldf3>
   83f2c:	1009883a 	mov	r4,r2
   83f30:	180b883a 	mov	r5,r3
   83f34:	000d883a 	mov	r6,zero
   83f38:	01d00734 	movhi	r7,16412
   83f3c:	008aaa00 	call	8aaa0 <__adddf3>
   83f40:	05bf3034 	movhi	r22,64704
   83f44:	1023883a 	mov	r17,r2
   83f48:	1daf883a 	add	r23,r3,r22
   83f4c:	9809883a 	mov	r4,r19
   83f50:	a00b883a 	mov	r5,r20
   83f54:	000d883a 	mov	r6,zero
   83f58:	01d00534 	movhi	r7,16404
   83f5c:	008c7000 	call	8c700 <__subdf3>
   83f60:	1009883a 	mov	r4,r2
   83f64:	180b883a 	mov	r5,r3
   83f68:	880d883a 	mov	r6,r17
   83f6c:	b80f883a 	mov	r7,r23
   83f70:	1027883a 	mov	r19,r2
   83f74:	1829883a 	mov	r20,r3
   83f78:	008bd3c0 	call	8bd3c <__gedf2>
   83f7c:	00806d16 	blt	zero,r2,84134 <_dtoa_r+0x1320>
   83f80:	b9e0003c 	xorhi	r7,r23,32768
   83f84:	9809883a 	mov	r4,r19
   83f88:	a00b883a 	mov	r5,r20
   83f8c:	880d883a 	mov	r6,r17
   83f90:	008be140 	call	8be14 <__ledf2>
   83f94:	103d7a0e 	bge	r2,zero,83580 <_dtoa_r+0x76c>
   83f98:	0029883a 	mov	r20,zero
   83f9c:	0023883a 	mov	r17,zero
   83fa0:	003f5206 	br	83cec <_dtoa_r+0xed8>
   83fa4:	d9800a17 	ldw	r6,40(sp)
   83fa8:	e00b883a 	mov	r5,fp
   83fac:	8009883a 	mov	r4,r16
   83fb0:	00869e80 	call	869e8 <__pow5mult>
   83fb4:	1039883a 	mov	fp,r2
   83fb8:	003e3606 	br	83894 <_dtoa_r+0xa80>
   83fbc:	d8000c15 	stw	zero,48(sp)
   83fc0:	003c5c06 	br	83134 <_dtoa_r+0x320>
   83fc4:	d9000a17 	ldw	r4,40(sp)
   83fc8:	d9800b17 	ldw	r6,44(sp)
   83fcc:	dd000a15 	stw	r20,40(sp)
   83fd0:	a105c83a 	sub	r2,r20,r4
   83fd4:	308d883a 	add	r6,r6,r2
   83fd8:	d9800b15 	stw	r6,44(sp)
   83fdc:	0029883a 	mov	r20,zero
   83fe0:	003e0106 	br	837e8 <_dtoa_r+0x9d4>
   83fe4:	dcc00317 	ldw	r19,12(sp)
   83fe8:	9029883a 	mov	r20,r18
   83fec:	04400084 	movi	r17,2
   83ff0:	003c8606 	br	8320c <_dtoa_r+0x3f8>
   83ff4:	3023883a 	mov	r17,r6
   83ff8:	80001115 	stw	zero,68(r16)
   83ffc:	000b883a 	mov	r5,zero
   84000:	003c6006 	br	83184 <_dtoa_r+0x370>
   84004:	04400044 	movi	r17,1
   84008:	dc400d15 	stw	r17,52(sp)
   8400c:	dc400915 	stw	r17,36(sp)
   84010:	dc402115 	stw	r17,132(sp)
   84014:	003ff806 	br	83ff8 <_dtoa_r+0x11e4>
   84018:	d8800617 	ldw	r2,24(sp)
   8401c:	00adc83a 	sub	r22,zero,r2
   84020:	b000ac26 	beq	r22,zero,842d4 <_dtoa_r+0x14c0>
   84024:	b08003cc 	andi	r2,r22,15
   84028:	100490fa 	slli	r2,r2,3
   8402c:	00c00274 	movhi	r3,9
   84030:	18ff3304 	addi	r3,r3,-820
   84034:	d9000317 	ldw	r4,12(sp)
   84038:	1885883a 	add	r2,r3,r2
   8403c:	11800017 	ldw	r6,0(r2)
   84040:	11c00117 	ldw	r7,4(r2)
   84044:	b02dd13a 	srai	r22,r22,4
   84048:	900b883a 	mov	r5,r18
   8404c:	008bf000 	call	8bf00 <__muldf3>
   84050:	1027883a 	mov	r19,r2
   84054:	1829883a 	mov	r20,r3
   84058:	b000ec26 	beq	r22,zero,8440c <_dtoa_r+0x15f8>
   8405c:	05c00274 	movhi	r23,9
   84060:	bdff2904 	addi	r23,r23,-860
   84064:	04400084 	movi	r17,2
   84068:	b180004c 	andi	r6,r22,1
   8406c:	1009883a 	mov	r4,r2
   84070:	b02dd07a 	srai	r22,r22,1
   84074:	180b883a 	mov	r5,r3
   84078:	30000426 	beq	r6,zero,8408c <_dtoa_r+0x1278>
   8407c:	b9800017 	ldw	r6,0(r23)
   84080:	b9c00117 	ldw	r7,4(r23)
   84084:	8c400044 	addi	r17,r17,1
   84088:	008bf000 	call	8bf00 <__muldf3>
   8408c:	bdc00204 	addi	r23,r23,8
   84090:	b03ff51e 	bne	r22,zero,84068 <_dtoa_r+0x1254>
   84094:	1027883a 	mov	r19,r2
   84098:	1829883a 	mov	r20,r3
   8409c:	003c7406 	br	83270 <_dtoa_r+0x45c>
   840a0:	d9800617 	ldw	r6,24(sp)
   840a4:	d9c00717 	ldw	r7,28(sp)
   840a8:	00c00c04 	movi	r3,48
   840ac:	31800044 	addi	r6,r6,1
   840b0:	38c00005 	stb	r3,0(r7)
   840b4:	02400c44 	movi	r9,49
   840b8:	d9800615 	stw	r6,24(sp)
   840bc:	12400005 	stb	r9,0(r2)
   840c0:	003d0006 	br	834c4 <_dtoa_r+0x6b0>
   840c4:	89400117 	ldw	r5,4(r17)
   840c8:	8009883a 	mov	r4,r16
   840cc:	00863100 	call	86310 <_Balloc>
   840d0:	89800417 	ldw	r6,16(r17)
   840d4:	11000304 	addi	r4,r2,12
   840d8:	89400304 	addi	r5,r17,12
   840dc:	31800084 	addi	r6,r6,2
   840e0:	318d883a 	add	r6,r6,r6
   840e4:	318d883a 	add	r6,r6,r6
   840e8:	1025883a 	mov	r18,r2
   840ec:	0085fb40 	call	85fb4 <memcpy>
   840f0:	8009883a 	mov	r4,r16
   840f4:	900b883a 	mov	r5,r18
   840f8:	01800044 	movi	r6,1
   840fc:	0086b300 	call	86b30 <__lshift>
   84100:	1027883a 	mov	r19,r2
   84104:	003e8806 	br	83b28 <_dtoa_r+0xd14>
   84108:	00800e44 	movi	r2,57
   8410c:	b8bf2b26 	beq	r23,r2,83dbc <_dtoa_r+0xfa8>
   84110:	ba400044 	addi	r9,r23,1
   84114:	882b883a 	mov	r21,r17
   84118:	95800044 	addi	r22,r18,1
   8411c:	92400005 	stb	r9,0(r18)
   84120:	9823883a 	mov	r17,r19
   84124:	003e3e06 	br	83a20 <_dtoa_r+0xc0c>
   84128:	882b883a 	mov	r21,r17
   8412c:	9823883a 	mov	r17,r19
   84130:	003e2206 	br	839bc <_dtoa_r+0xba8>
   84134:	0029883a 	mov	r20,zero
   84138:	0023883a 	mov	r17,zero
   8413c:	003f6206 	br	83ec8 <_dtoa_r+0x10b4>
   84140:	59bfffc4 	addi	r6,r11,-1
   84144:	300490fa 	slli	r2,r6,3
   84148:	00c00274 	movhi	r3,9
   8414c:	18ff3304 	addi	r3,r3,-820
   84150:	b80f883a 	mov	r7,r23
   84154:	1885883a 	add	r2,r3,r2
   84158:	11000017 	ldw	r4,0(r2)
   8415c:	11400117 	ldw	r5,4(r2)
   84160:	d8800717 	ldw	r2,28(sp)
   84164:	d9801015 	stw	r6,64(sp)
   84168:	880d883a 	mov	r6,r17
   8416c:	dac01615 	stw	r11,88(sp)
   84170:	15800044 	addi	r22,r2,1
   84174:	008bf000 	call	8bf00 <__muldf3>
   84178:	a00b883a 	mov	r5,r20
   8417c:	9809883a 	mov	r4,r19
   84180:	d8c01215 	stw	r3,72(sp)
   84184:	d8801115 	stw	r2,68(sp)
   84188:	008cf880 	call	8cf88 <__fixdfsi>
   8418c:	1009883a 	mov	r4,r2
   84190:	1023883a 	mov	r17,r2
   84194:	008d0080 	call	8d008 <__floatsidf>
   84198:	9809883a 	mov	r4,r19
   8419c:	a00b883a 	mov	r5,r20
   841a0:	100d883a 	mov	r6,r2
   841a4:	180f883a 	mov	r7,r3
   841a8:	008c7000 	call	8c700 <__subdf3>
   841ac:	1815883a 	mov	r10,r3
   841b0:	d8c00717 	ldw	r3,28(sp)
   841b4:	8c400c04 	addi	r17,r17,48
   841b8:	102f883a 	mov	r23,r2
   841bc:	1c400005 	stb	r17,0(r3)
   841c0:	dac01617 	ldw	r11,88(sp)
   841c4:	00800044 	movi	r2,1
   841c8:	58802426 	beq	r11,r2,8425c <_dtoa_r+0x1448>
   841cc:	d9800717 	ldw	r6,28(sp)
   841d0:	dc001415 	stw	r16,80(sp)
   841d4:	b805883a 	mov	r2,r23
   841d8:	32d7883a 	add	r11,r6,r11
   841dc:	b027883a 	mov	r19,r22
   841e0:	5821883a 	mov	r16,r11
   841e4:	5007883a 	mov	r3,r10
   841e8:	902f883a 	mov	r23,r18
   841ec:	000d883a 	mov	r6,zero
   841f0:	01d00934 	movhi	r7,16420
   841f4:	1009883a 	mov	r4,r2
   841f8:	180b883a 	mov	r5,r3
   841fc:	008bf000 	call	8bf00 <__muldf3>
   84200:	180b883a 	mov	r5,r3
   84204:	1009883a 	mov	r4,r2
   84208:	1829883a 	mov	r20,r3
   8420c:	1025883a 	mov	r18,r2
   84210:	008cf880 	call	8cf88 <__fixdfsi>
   84214:	1009883a 	mov	r4,r2
   84218:	1023883a 	mov	r17,r2
   8421c:	008d0080 	call	8d008 <__floatsidf>
   84220:	9009883a 	mov	r4,r18
   84224:	a00b883a 	mov	r5,r20
   84228:	100d883a 	mov	r6,r2
   8422c:	180f883a 	mov	r7,r3
   84230:	8c400c04 	addi	r17,r17,48
   84234:	008c7000 	call	8c700 <__subdf3>
   84238:	9cc00044 	addi	r19,r19,1
   8423c:	9c7fffc5 	stb	r17,-1(r19)
   84240:	9c3fea1e 	bne	r19,r16,841ec <_dtoa_r+0x13d8>
   84244:	d9c01017 	ldw	r7,64(sp)
   84248:	dc001417 	ldw	r16,80(sp)
   8424c:	b825883a 	mov	r18,r23
   84250:	1815883a 	mov	r10,r3
   84254:	102f883a 	mov	r23,r2
   84258:	b1ed883a 	add	r22,r22,r7
   8425c:	d9001117 	ldw	r4,68(sp)
   84260:	d9401217 	ldw	r5,72(sp)
   84264:	000d883a 	mov	r6,zero
   84268:	01cff834 	movhi	r7,16352
   8426c:	da801615 	stw	r10,88(sp)
   84270:	008aaa00 	call	8aaa0 <__adddf3>
   84274:	da801617 	ldw	r10,88(sp)
   84278:	1009883a 	mov	r4,r2
   8427c:	180b883a 	mov	r5,r3
   84280:	500f883a 	mov	r7,r10
   84284:	b80d883a 	mov	r6,r23
   84288:	008be140 	call	8be14 <__ledf2>
   8428c:	da801617 	ldw	r10,88(sp)
   84290:	1000330e 	bge	r2,zero,84360 <_dtoa_r+0x154c>
   84294:	d9001317 	ldw	r4,76(sp)
   84298:	b53fffc3 	ldbu	r20,-1(r22)
   8429c:	d9000615 	stw	r4,24(sp)
   842a0:	003d3706 	br	83780 <_dtoa_r+0x96c>
   842a4:	d8800817 	ldw	r2,32(sp)
   842a8:	11e7c83a 	sub	r19,r2,r7
   842ac:	0005883a 	mov	r2,zero
   842b0:	003d5106 	br	837f8 <_dtoa_r+0x9e4>
   842b4:	00800044 	movi	r2,1
   842b8:	003dbd06 	br	839b0 <_dtoa_r+0xb9c>
   842bc:	d8800217 	ldw	r2,8(sp)
   842c0:	00c00d84 	movi	r3,54
   842c4:	dd000a17 	ldw	r20,40(sp)
   842c8:	1885c83a 	sub	r2,r3,r2
   842cc:	dcc00817 	ldw	r19,32(sp)
   842d0:	003d4906 	br	837f8 <_dtoa_r+0x9e4>
   842d4:	dcc00317 	ldw	r19,12(sp)
   842d8:	9029883a 	mov	r20,r18
   842dc:	04400084 	movi	r17,2
   842e0:	003be306 	br	83270 <_dtoa_r+0x45c>
   842e4:	d9000917 	ldw	r4,36(sp)
   842e8:	203f0926 	beq	r4,zero,83f10 <_dtoa_r+0x10fc>
   842ec:	d9800d17 	ldw	r6,52(sp)
   842f0:	01bca30e 	bge	zero,r6,83580 <_dtoa_r+0x76c>
   842f4:	a00b883a 	mov	r5,r20
   842f8:	9809883a 	mov	r4,r19
   842fc:	000d883a 	mov	r6,zero
   84300:	01d00934 	movhi	r7,16420
   84304:	008bf000 	call	8bf00 <__muldf3>
   84308:	89000044 	addi	r4,r17,1
   8430c:	1027883a 	mov	r19,r2
   84310:	1829883a 	mov	r20,r3
   84314:	008d0080 	call	8d008 <__floatsidf>
   84318:	9809883a 	mov	r4,r19
   8431c:	a00b883a 	mov	r5,r20
   84320:	100d883a 	mov	r6,r2
   84324:	180f883a 	mov	r7,r3
   84328:	008bf000 	call	8bf00 <__muldf3>
   8432c:	01d00734 	movhi	r7,16412
   84330:	1009883a 	mov	r4,r2
   84334:	180b883a 	mov	r5,r3
   84338:	000d883a 	mov	r6,zero
   8433c:	008aaa00 	call	8aaa0 <__adddf3>
   84340:	d9c00617 	ldw	r7,24(sp)
   84344:	05bf3034 	movhi	r22,64704
   84348:	1023883a 	mov	r17,r2
   8434c:	39ffffc4 	addi	r7,r7,-1
   84350:	d9c01315 	stw	r7,76(sp)
   84354:	1daf883a 	add	r23,r3,r22
   84358:	dac00d17 	ldw	r11,52(sp)
   8435c:	003be006 	br	832e0 <_dtoa_r+0x4cc>
   84360:	d9801117 	ldw	r6,68(sp)
   84364:	d9c01217 	ldw	r7,72(sp)
   84368:	0009883a 	mov	r4,zero
   8436c:	014ff834 	movhi	r5,16352
   84370:	da801615 	stw	r10,88(sp)
   84374:	008c7000 	call	8c700 <__subdf3>
   84378:	da801617 	ldw	r10,88(sp)
   8437c:	1009883a 	mov	r4,r2
   84380:	180b883a 	mov	r5,r3
   84384:	b80d883a 	mov	r6,r23
   84388:	500f883a 	mov	r7,r10
   8438c:	008bd3c0 	call	8bd3c <__gedf2>
   84390:	00bc7b0e 	bge	zero,r2,83580 <_dtoa_r+0x76c>
   84394:	01000c04 	movi	r4,48
   84398:	00000106 	br	843a0 <_dtoa_r+0x158c>
   8439c:	102d883a 	mov	r22,r2
   843a0:	b0bfffc4 	addi	r2,r22,-1
   843a4:	10c00007 	ldb	r3,0(r2)
   843a8:	193ffc26 	beq	r3,r4,8439c <_dtoa_r+0x1588>
   843ac:	d9001317 	ldw	r4,76(sp)
   843b0:	d9000615 	stw	r4,24(sp)
   843b4:	003c4306 	br	834c4 <_dtoa_r+0x6b0>
   843b8:	d8c01317 	ldw	r3,76(sp)
   843bc:	dc001117 	ldw	r16,68(sp)
   843c0:	d8c00615 	stw	r3,24(sp)
   843c4:	003cee06 	br	83780 <_dtoa_r+0x96c>
   843c8:	dd401217 	ldw	r21,72(sp)
   843cc:	dc001117 	ldw	r16,68(sp)
   843d0:	dc801417 	ldw	r18,80(sp)
   843d4:	003c6a06 	br	83580 <_dtoa_r+0x76c>
   843d8:	103e6f1e 	bne	r2,zero,83d98 <_dtoa_r+0xf84>
   843dc:	b880004c 	andi	r2,r23,1
   843e0:	103e6d26 	beq	r2,zero,83d98 <_dtoa_r+0xf84>
   843e4:	003e6906 	br	83d8c <_dtoa_r+0xf78>
   843e8:	8009883a 	mov	r4,r16
   843ec:	880b883a 	mov	r5,r17
   843f0:	01800284 	movi	r6,10
   843f4:	000f883a 	mov	r7,zero
   843f8:	00863e00 	call	863e0 <__multadd>
   843fc:	d9000d17 	ldw	r4,52(sp)
   84400:	1023883a 	mov	r17,r2
   84404:	d9000915 	stw	r4,36(sp)
   84408:	003d5006 	br	8394c <_dtoa_r+0xb38>
   8440c:	04400084 	movi	r17,2
   84410:	003b9706 	br	83270 <_dtoa_r+0x45c>
   84414:	d8801317 	ldw	r2,76(sp)
   84418:	d8800615 	stw	r2,24(sp)
   8441c:	003cd806 	br	83780 <_dtoa_r+0x96c>
   84420:	d8801317 	ldw	r2,76(sp)
   84424:	d8800615 	stw	r2,24(sp)
   84428:	003c2606 	br	834c4 <_dtoa_r+0x6b0>
   8442c:	04c00044 	movi	r19,1
   84430:	003b3506 	br	83108 <_dtoa_r+0x2f4>
   84434:	3023883a 	mov	r17,r6
   84438:	000b883a 	mov	r5,zero
   8443c:	003b5106 	br	83184 <_dtoa_r+0x370>
   84440:	20fd3426 	beq	r4,r3,83914 <_dtoa_r+0xb00>
   84444:	00c00f04 	movi	r3,60
   84448:	1885c83a 	sub	r2,r3,r2
   8444c:	003da106 	br	83ad4 <_dtoa_r+0xcc0>

00084450 <_fflush_r>:
   84450:	defffb04 	addi	sp,sp,-20
   84454:	dcc00315 	stw	r19,12(sp)
   84458:	dc400115 	stw	r17,4(sp)
   8445c:	dfc00415 	stw	ra,16(sp)
   84460:	dc800215 	stw	r18,8(sp)
   84464:	dc000015 	stw	r16,0(sp)
   84468:	2027883a 	mov	r19,r4
   8446c:	2823883a 	mov	r17,r5
   84470:	20000226 	beq	r4,zero,8447c <_fflush_r+0x2c>
   84474:	20800e17 	ldw	r2,56(r4)
   84478:	10005826 	beq	r2,zero,845dc <_fflush_r+0x18c>
   8447c:	8880030b 	ldhu	r2,12(r17)
   84480:	10ffffcc 	andi	r3,r2,65535
   84484:	18e0001c 	xori	r3,r3,32768
   84488:	18e00004 	addi	r3,r3,-32768
   8448c:	18002b26 	beq	r3,zero,8453c <_fflush_r+0xec>
   84490:	10c0020c 	andi	r3,r2,8
   84494:	1800311e 	bne	r3,zero,8455c <_fflush_r+0x10c>
   84498:	88c00117 	ldw	r3,4(r17)
   8449c:	10820014 	ori	r2,r2,2048
   844a0:	8880030d 	sth	r2,12(r17)
   844a4:	00c05c0e 	bge	zero,r3,84618 <_fflush_r+0x1c8>
   844a8:	88c00a17 	ldw	r3,40(r17)
   844ac:	18002326 	beq	r3,zero,8453c <_fflush_r+0xec>
   844b0:	9c000017 	ldw	r16,0(r19)
   844b4:	1104000c 	andi	r4,r2,4096
   844b8:	98000015 	stw	zero,0(r19)
   844bc:	20004b26 	beq	r4,zero,845ec <_fflush_r+0x19c>
   844c0:	89801417 	ldw	r6,80(r17)
   844c4:	1080010c 	andi	r2,r2,4
   844c8:	10000626 	beq	r2,zero,844e4 <_fflush_r+0x94>
   844cc:	89000117 	ldw	r4,4(r17)
   844d0:	88800c17 	ldw	r2,48(r17)
   844d4:	310dc83a 	sub	r6,r6,r4
   844d8:	10000226 	beq	r2,zero,844e4 <_fflush_r+0x94>
   844dc:	88800f17 	ldw	r2,60(r17)
   844e0:	308dc83a 	sub	r6,r6,r2
   844e4:	89400717 	ldw	r5,28(r17)
   844e8:	9809883a 	mov	r4,r19
   844ec:	000f883a 	mov	r7,zero
   844f0:	183ee83a 	callr	r3
   844f4:	00ffffc4 	movi	r3,-1
   844f8:	10c04a26 	beq	r2,r3,84624 <_fflush_r+0x1d4>
   844fc:	88c0030b 	ldhu	r3,12(r17)
   84500:	89000417 	ldw	r4,16(r17)
   84504:	88000115 	stw	zero,4(r17)
   84508:	197dffcc 	andi	r5,r3,63487
   8450c:	8940030d 	sth	r5,12(r17)
   84510:	89000015 	stw	r4,0(r17)
   84514:	18c4000c 	andi	r3,r3,4096
   84518:	1800581e 	bne	r3,zero,8467c <_fflush_r+0x22c>
   8451c:	89400c17 	ldw	r5,48(r17)
   84520:	9c000015 	stw	r16,0(r19)
   84524:	28000526 	beq	r5,zero,8453c <_fflush_r+0xec>
   84528:	88801004 	addi	r2,r17,64
   8452c:	28800226 	beq	r5,r2,84538 <_fflush_r+0xe8>
   84530:	9809883a 	mov	r4,r19
   84534:	0084ba40 	call	84ba4 <_free_r>
   84538:	88000c15 	stw	zero,48(r17)
   8453c:	0005883a 	mov	r2,zero
   84540:	dfc00417 	ldw	ra,16(sp)
   84544:	dcc00317 	ldw	r19,12(sp)
   84548:	dc800217 	ldw	r18,8(sp)
   8454c:	dc400117 	ldw	r17,4(sp)
   84550:	dc000017 	ldw	r16,0(sp)
   84554:	dec00504 	addi	sp,sp,20
   84558:	f800283a 	ret
   8455c:	8c800417 	ldw	r18,16(r17)
   84560:	903ff626 	beq	r18,zero,8453c <_fflush_r+0xec>
   84564:	8c000017 	ldw	r16,0(r17)
   84568:	108000cc 	andi	r2,r2,3
   8456c:	8c800015 	stw	r18,0(r17)
   84570:	84a1c83a 	sub	r16,r16,r18
   84574:	10001b26 	beq	r2,zero,845e4 <_fflush_r+0x194>
   84578:	0005883a 	mov	r2,zero
   8457c:	88800215 	stw	r2,8(r17)
   84580:	04000316 	blt	zero,r16,84590 <_fflush_r+0x140>
   84584:	003fed06 	br	8453c <_fflush_r+0xec>
   84588:	90a5883a 	add	r18,r18,r2
   8458c:	043feb0e 	bge	zero,r16,8453c <_fflush_r+0xec>
   84590:	88800917 	ldw	r2,36(r17)
   84594:	89400717 	ldw	r5,28(r17)
   84598:	800f883a 	mov	r7,r16
   8459c:	900d883a 	mov	r6,r18
   845a0:	9809883a 	mov	r4,r19
   845a4:	103ee83a 	callr	r2
   845a8:	80a1c83a 	sub	r16,r16,r2
   845ac:	00bff616 	blt	zero,r2,84588 <_fflush_r+0x138>
   845b0:	88c0030b 	ldhu	r3,12(r17)
   845b4:	00bfffc4 	movi	r2,-1
   845b8:	18c01014 	ori	r3,r3,64
   845bc:	88c0030d 	sth	r3,12(r17)
   845c0:	dfc00417 	ldw	ra,16(sp)
   845c4:	dcc00317 	ldw	r19,12(sp)
   845c8:	dc800217 	ldw	r18,8(sp)
   845cc:	dc400117 	ldw	r17,4(sp)
   845d0:	dc000017 	ldw	r16,0(sp)
   845d4:	dec00504 	addi	sp,sp,20
   845d8:	f800283a 	ret
   845dc:	00847700 	call	84770 <__sinit>
   845e0:	003fa606 	br	8447c <_fflush_r+0x2c>
   845e4:	88800517 	ldw	r2,20(r17)
   845e8:	003fe406 	br	8457c <_fflush_r+0x12c>
   845ec:	89400717 	ldw	r5,28(r17)
   845f0:	000d883a 	mov	r6,zero
   845f4:	9809883a 	mov	r4,r19
   845f8:	01c00044 	movi	r7,1
   845fc:	183ee83a 	callr	r3
   84600:	100d883a 	mov	r6,r2
   84604:	00bfffc4 	movi	r2,-1
   84608:	30801326 	beq	r6,r2,84658 <_fflush_r+0x208>
   8460c:	8880030b 	ldhu	r2,12(r17)
   84610:	88c00a17 	ldw	r3,40(r17)
   84614:	003fab06 	br	844c4 <_fflush_r+0x74>
   84618:	88c00f17 	ldw	r3,60(r17)
   8461c:	00ffa216 	blt	zero,r3,844a8 <_fflush_r+0x58>
   84620:	003fc606 	br	8453c <_fflush_r+0xec>
   84624:	98c00017 	ldw	r3,0(r19)
   84628:	183fb426 	beq	r3,zero,844fc <_fflush_r+0xac>
   8462c:	01000744 	movi	r4,29
   84630:	19000226 	beq	r3,r4,8463c <_fflush_r+0x1ec>
   84634:	01000584 	movi	r4,22
   84638:	1900121e 	bne	r3,r4,84684 <_fflush_r+0x234>
   8463c:	88c0030b 	ldhu	r3,12(r17)
   84640:	88800417 	ldw	r2,16(r17)
   84644:	88000115 	stw	zero,4(r17)
   84648:	18fdffcc 	andi	r3,r3,63487
   8464c:	88c0030d 	sth	r3,12(r17)
   84650:	88800015 	stw	r2,0(r17)
   84654:	003fb106 	br	8451c <_fflush_r+0xcc>
   84658:	98800017 	ldw	r2,0(r19)
   8465c:	103feb26 	beq	r2,zero,8460c <_fflush_r+0x1bc>
   84660:	00c00744 	movi	r3,29
   84664:	10c00226 	beq	r2,r3,84670 <_fflush_r+0x220>
   84668:	00c00584 	movi	r3,22
   8466c:	10ffd01e 	bne	r2,r3,845b0 <_fflush_r+0x160>
   84670:	9c000015 	stw	r16,0(r19)
   84674:	0005883a 	mov	r2,zero
   84678:	003fb106 	br	84540 <_fflush_r+0xf0>
   8467c:	88801415 	stw	r2,80(r17)
   84680:	003fa606 	br	8451c <_fflush_r+0xcc>
   84684:	88c0030b 	ldhu	r3,12(r17)
   84688:	18c01014 	ori	r3,r3,64
   8468c:	88c0030d 	sth	r3,12(r17)
   84690:	003fab06 	br	84540 <_fflush_r+0xf0>

00084694 <fflush>:
   84694:	200b883a 	mov	r5,r4
   84698:	20000426 	beq	r4,zero,846ac <fflush+0x18>
   8469c:	00800274 	movhi	r2,9
   846a0:	10866404 	addi	r2,r2,6544
   846a4:	11000017 	ldw	r4,0(r2)
   846a8:	00844501 	jmpi	84450 <_fflush_r>
   846ac:	00800274 	movhi	r2,9
   846b0:	10866304 	addi	r2,r2,6540
   846b4:	11000017 	ldw	r4,0(r2)
   846b8:	01400234 	movhi	r5,8
   846bc:	29511404 	addi	r5,r5,17488
   846c0:	00853c81 	jmpi	853c8 <_fwalk_reent>

000846c4 <__fp_lock>:
   846c4:	0005883a 	mov	r2,zero
   846c8:	f800283a 	ret

000846cc <__fp_unlock>:
   846cc:	0005883a 	mov	r2,zero
   846d0:	f800283a 	ret

000846d4 <_cleanup_r>:
   846d4:	01400274 	movhi	r5,9
   846d8:	29656304 	addi	r5,r5,-27252
   846dc:	00853201 	jmpi	85320 <_fwalk>

000846e0 <__sfmoreglue>:
   846e0:	defffc04 	addi	sp,sp,-16
   846e4:	dc800215 	stw	r18,8(sp)
   846e8:	2825883a 	mov	r18,r5
   846ec:	dc000015 	stw	r16,0(sp)
   846f0:	01401a04 	movi	r5,104
   846f4:	2021883a 	mov	r16,r4
   846f8:	9009883a 	mov	r4,r18
   846fc:	dfc00315 	stw	ra,12(sp)
   84700:	dc400115 	stw	r17,4(sp)
   84704:	008aa780 	call	8aa78 <__mulsi3>
   84708:	8009883a 	mov	r4,r16
   8470c:	11400304 	addi	r5,r2,12
   84710:	1023883a 	mov	r17,r2
   84714:	00857080 	call	85708 <_malloc_r>
   84718:	1021883a 	mov	r16,r2
   8471c:	10000726 	beq	r2,zero,8473c <__sfmoreglue+0x5c>
   84720:	11000304 	addi	r4,r2,12
   84724:	10000015 	stw	zero,0(r2)
   84728:	14800115 	stw	r18,4(r2)
   8472c:	11000215 	stw	r4,8(r2)
   84730:	000b883a 	mov	r5,zero
   84734:	880d883a 	mov	r6,r17
   84738:	00861fc0 	call	861fc <memset>
   8473c:	8005883a 	mov	r2,r16
   84740:	dfc00317 	ldw	ra,12(sp)
   84744:	dc800217 	ldw	r18,8(sp)
   84748:	dc400117 	ldw	r17,4(sp)
   8474c:	dc000017 	ldw	r16,0(sp)
   84750:	dec00404 	addi	sp,sp,16
   84754:	f800283a 	ret

00084758 <_cleanup>:
   84758:	00800274 	movhi	r2,9
   8475c:	10866304 	addi	r2,r2,6540
   84760:	11000017 	ldw	r4,0(r2)
   84764:	01400274 	movhi	r5,9
   84768:	29656304 	addi	r5,r5,-27252
   8476c:	00853201 	jmpi	85320 <_fwalk>

00084770 <__sinit>:
   84770:	20800e17 	ldw	r2,56(r4)
   84774:	defff704 	addi	sp,sp,-36
   84778:	dc800215 	stw	r18,8(sp)
   8477c:	dfc00815 	stw	ra,32(sp)
   84780:	ddc00715 	stw	r23,28(sp)
   84784:	dd800615 	stw	r22,24(sp)
   84788:	dd400515 	stw	r21,20(sp)
   8478c:	dd000415 	stw	r20,16(sp)
   84790:	dcc00315 	stw	r19,12(sp)
   84794:	dc400115 	stw	r17,4(sp)
   84798:	dc000015 	stw	r16,0(sp)
   8479c:	2025883a 	mov	r18,r4
   847a0:	10004f1e 	bne	r2,zero,848e0 <__sinit+0x170>
   847a4:	24000117 	ldw	r16,4(r4)
   847a8:	00c00234 	movhi	r3,8
   847ac:	18d1b504 	addi	r3,r3,18132
   847b0:	20c00f15 	stw	r3,60(r4)
   847b4:	2080bb04 	addi	r2,r4,748
   847b8:	00c000c4 	movi	r3,3
   847bc:	05c00044 	movi	r23,1
   847c0:	20c0b915 	stw	r3,740(r4)
   847c4:	2080ba15 	stw	r2,744(r4)
   847c8:	25c00e15 	stw	r23,56(r4)
   847cc:	2000b815 	stw	zero,736(r4)
   847d0:	00800104 	movi	r2,4
   847d4:	81001704 	addi	r4,r16,92
   847d8:	000b883a 	mov	r5,zero
   847dc:	01800204 	movi	r6,8
   847e0:	80000015 	stw	zero,0(r16)
   847e4:	80000115 	stw	zero,4(r16)
   847e8:	80000215 	stw	zero,8(r16)
   847ec:	8080030d 	sth	r2,12(r16)
   847f0:	80001915 	stw	zero,100(r16)
   847f4:	8000038d 	sth	zero,14(r16)
   847f8:	80000415 	stw	zero,16(r16)
   847fc:	80000515 	stw	zero,20(r16)
   84800:	80000615 	stw	zero,24(r16)
   84804:	00861fc0 	call	861fc <memset>
   84808:	94400217 	ldw	r17,8(r18)
   8480c:	05800234 	movhi	r22,8
   84810:	b59ed704 	addi	r22,r22,31580
   84814:	05400234 	movhi	r21,8
   84818:	ad5eee04 	addi	r21,r21,31672
   8481c:	05000234 	movhi	r20,8
   84820:	a51f0d04 	addi	r20,r20,31796
   84824:	04c00234 	movhi	r19,8
   84828:	9cdf2404 	addi	r19,r19,31888
   8482c:	84000715 	stw	r16,28(r16)
   84830:	85800815 	stw	r22,32(r16)
   84834:	85400915 	stw	r21,36(r16)
   84838:	85000a15 	stw	r20,40(r16)
   8483c:	84c00b15 	stw	r19,44(r16)
   84840:	00800284 	movi	r2,10
   84844:	89001704 	addi	r4,r17,92
   84848:	000b883a 	mov	r5,zero
   8484c:	01800204 	movi	r6,8
   84850:	88000015 	stw	zero,0(r17)
   84854:	88000115 	stw	zero,4(r17)
   84858:	88000215 	stw	zero,8(r17)
   8485c:	8880030d 	sth	r2,12(r17)
   84860:	88001915 	stw	zero,100(r17)
   84864:	8dc0038d 	sth	r23,14(r17)
   84868:	88000415 	stw	zero,16(r17)
   8486c:	88000515 	stw	zero,20(r17)
   84870:	88000615 	stw	zero,24(r17)
   84874:	00861fc0 	call	861fc <memset>
   84878:	94000317 	ldw	r16,12(r18)
   8487c:	00800484 	movi	r2,18
   84880:	8c400715 	stw	r17,28(r17)
   84884:	8d800815 	stw	r22,32(r17)
   84888:	8d400915 	stw	r21,36(r17)
   8488c:	8d000a15 	stw	r20,40(r17)
   84890:	8cc00b15 	stw	r19,44(r17)
   84894:	8080030d 	sth	r2,12(r16)
   84898:	00800084 	movi	r2,2
   8489c:	80000015 	stw	zero,0(r16)
   848a0:	80000115 	stw	zero,4(r16)
   848a4:	80000215 	stw	zero,8(r16)
   848a8:	80001915 	stw	zero,100(r16)
   848ac:	8080038d 	sth	r2,14(r16)
   848b0:	80000415 	stw	zero,16(r16)
   848b4:	80000515 	stw	zero,20(r16)
   848b8:	80000615 	stw	zero,24(r16)
   848bc:	81001704 	addi	r4,r16,92
   848c0:	000b883a 	mov	r5,zero
   848c4:	01800204 	movi	r6,8
   848c8:	00861fc0 	call	861fc <memset>
   848cc:	84000715 	stw	r16,28(r16)
   848d0:	85800815 	stw	r22,32(r16)
   848d4:	85400915 	stw	r21,36(r16)
   848d8:	85000a15 	stw	r20,40(r16)
   848dc:	84c00b15 	stw	r19,44(r16)
   848e0:	dfc00817 	ldw	ra,32(sp)
   848e4:	ddc00717 	ldw	r23,28(sp)
   848e8:	dd800617 	ldw	r22,24(sp)
   848ec:	dd400517 	ldw	r21,20(sp)
   848f0:	dd000417 	ldw	r20,16(sp)
   848f4:	dcc00317 	ldw	r19,12(sp)
   848f8:	dc800217 	ldw	r18,8(sp)
   848fc:	dc400117 	ldw	r17,4(sp)
   84900:	dc000017 	ldw	r16,0(sp)
   84904:	dec00904 	addi	sp,sp,36
   84908:	f800283a 	ret

0008490c <__sfp>:
   8490c:	defffb04 	addi	sp,sp,-20
   84910:	00800274 	movhi	r2,9
   84914:	10866304 	addi	r2,r2,6540
   84918:	dc800215 	stw	r18,8(sp)
   8491c:	14800017 	ldw	r18,0(r2)
   84920:	dcc00315 	stw	r19,12(sp)
   84924:	dfc00415 	stw	ra,16(sp)
   84928:	90800e17 	ldw	r2,56(r18)
   8492c:	dc400115 	stw	r17,4(sp)
   84930:	dc000015 	stw	r16,0(sp)
   84934:	2027883a 	mov	r19,r4
   84938:	10002f26 	beq	r2,zero,849f8 <__sfp+0xec>
   8493c:	9480b804 	addi	r18,r18,736
   84940:	047fffc4 	movi	r17,-1
   84944:	91400117 	ldw	r5,4(r18)
   84948:	94000217 	ldw	r16,8(r18)
   8494c:	297fffc4 	addi	r5,r5,-1
   84950:	28000a16 	blt	r5,zero,8497c <__sfp+0x70>
   84954:	8080030f 	ldh	r2,12(r16)
   84958:	10000c26 	beq	r2,zero,8498c <__sfp+0x80>
   8495c:	80c01d04 	addi	r3,r16,116
   84960:	00000206 	br	8496c <__sfp+0x60>
   84964:	18bfe60f 	ldh	r2,-104(r3)
   84968:	10000826 	beq	r2,zero,8498c <__sfp+0x80>
   8496c:	297fffc4 	addi	r5,r5,-1
   84970:	1c3ffd04 	addi	r16,r3,-12
   84974:	18c01a04 	addi	r3,r3,104
   84978:	2c7ffa1e 	bne	r5,r17,84964 <__sfp+0x58>
   8497c:	90800017 	ldw	r2,0(r18)
   84980:	10002026 	beq	r2,zero,84a04 <__sfp+0xf8>
   84984:	1025883a 	mov	r18,r2
   84988:	003fee06 	br	84944 <__sfp+0x38>
   8498c:	00bfffc4 	movi	r2,-1
   84990:	8080038d 	sth	r2,14(r16)
   84994:	00800044 	movi	r2,1
   84998:	8080030d 	sth	r2,12(r16)
   8499c:	80001915 	stw	zero,100(r16)
   849a0:	80000015 	stw	zero,0(r16)
   849a4:	80000215 	stw	zero,8(r16)
   849a8:	80000115 	stw	zero,4(r16)
   849ac:	80000415 	stw	zero,16(r16)
   849b0:	80000515 	stw	zero,20(r16)
   849b4:	80000615 	stw	zero,24(r16)
   849b8:	81001704 	addi	r4,r16,92
   849bc:	000b883a 	mov	r5,zero
   849c0:	01800204 	movi	r6,8
   849c4:	00861fc0 	call	861fc <memset>
   849c8:	8005883a 	mov	r2,r16
   849cc:	80000c15 	stw	zero,48(r16)
   849d0:	80000d15 	stw	zero,52(r16)
   849d4:	80001115 	stw	zero,68(r16)
   849d8:	80001215 	stw	zero,72(r16)
   849dc:	dfc00417 	ldw	ra,16(sp)
   849e0:	dcc00317 	ldw	r19,12(sp)
   849e4:	dc800217 	ldw	r18,8(sp)
   849e8:	dc400117 	ldw	r17,4(sp)
   849ec:	dc000017 	ldw	r16,0(sp)
   849f0:	dec00504 	addi	sp,sp,20
   849f4:	f800283a 	ret
   849f8:	9009883a 	mov	r4,r18
   849fc:	00847700 	call	84770 <__sinit>
   84a00:	003fce06 	br	8493c <__sfp+0x30>
   84a04:	9809883a 	mov	r4,r19
   84a08:	01400104 	movi	r5,4
   84a0c:	00846e00 	call	846e0 <__sfmoreglue>
   84a10:	90800015 	stw	r2,0(r18)
   84a14:	103fdb1e 	bne	r2,zero,84984 <__sfp+0x78>
   84a18:	00800304 	movi	r2,12
   84a1c:	98800015 	stw	r2,0(r19)
   84a20:	0005883a 	mov	r2,zero
   84a24:	003fed06 	br	849dc <__sfp+0xd0>

00084a28 <__sfp_lock_acquire>:
   84a28:	f800283a 	ret

00084a2c <__sfp_lock_release>:
   84a2c:	f800283a 	ret

00084a30 <__sinit_lock_acquire>:
   84a30:	f800283a 	ret

00084a34 <__sinit_lock_release>:
   84a34:	f800283a 	ret

00084a38 <__fp_lock_all>:
   84a38:	00800274 	movhi	r2,9
   84a3c:	10866404 	addi	r2,r2,6544
   84a40:	11000017 	ldw	r4,0(r2)
   84a44:	01400234 	movhi	r5,8
   84a48:	2951b104 	addi	r5,r5,18116
   84a4c:	00853201 	jmpi	85320 <_fwalk>

00084a50 <__fp_unlock_all>:
   84a50:	00800274 	movhi	r2,9
   84a54:	10866404 	addi	r2,r2,6544
   84a58:	11000017 	ldw	r4,0(r2)
   84a5c:	01400234 	movhi	r5,8
   84a60:	2951b304 	addi	r5,r5,18124
   84a64:	00853201 	jmpi	85320 <_fwalk>

00084a68 <_malloc_trim_r>:
   84a68:	defffb04 	addi	sp,sp,-20
   84a6c:	dcc00315 	stw	r19,12(sp)
   84a70:	dc800215 	stw	r18,8(sp)
   84a74:	dc400115 	stw	r17,4(sp)
   84a78:	dc000015 	stw	r16,0(sp)
   84a7c:	2827883a 	mov	r19,r5
   84a80:	dfc00415 	stw	ra,16(sp)
   84a84:	04400274 	movhi	r17,9
   84a88:	8c40df04 	addi	r17,r17,892
   84a8c:	2021883a 	mov	r16,r4
   84a90:	008d7f00 	call	8d7f0 <__malloc_lock>
   84a94:	88800217 	ldw	r2,8(r17)
   84a98:	14800117 	ldw	r18,4(r2)
   84a9c:	00bfff04 	movi	r2,-4
   84aa0:	90a4703a 	and	r18,r18,r2
   84aa4:	94e7c83a 	sub	r19,r18,r19
   84aa8:	9cc3fbc4 	addi	r19,r19,4079
   84aac:	9826d33a 	srli	r19,r19,12
   84ab0:	0083ffc4 	movi	r2,4095
   84ab4:	9cffffc4 	addi	r19,r19,-1
   84ab8:	9826933a 	slli	r19,r19,12
   84abc:	14c0060e 	bge	r2,r19,84ad8 <_malloc_trim_r+0x70>
   84ac0:	8009883a 	mov	r4,r16
   84ac4:	000b883a 	mov	r5,zero
   84ac8:	0087af80 	call	87af8 <_sbrk_r>
   84acc:	88c00217 	ldw	r3,8(r17)
   84ad0:	1c87883a 	add	r3,r3,r18
   84ad4:	10c00a26 	beq	r2,r3,84b00 <_malloc_trim_r+0x98>
   84ad8:	8009883a 	mov	r4,r16
   84adc:	008d8100 	call	8d810 <__malloc_unlock>
   84ae0:	0005883a 	mov	r2,zero
   84ae4:	dfc00417 	ldw	ra,16(sp)
   84ae8:	dcc00317 	ldw	r19,12(sp)
   84aec:	dc800217 	ldw	r18,8(sp)
   84af0:	dc400117 	ldw	r17,4(sp)
   84af4:	dc000017 	ldw	r16,0(sp)
   84af8:	dec00504 	addi	sp,sp,20
   84afc:	f800283a 	ret
   84b00:	8009883a 	mov	r4,r16
   84b04:	04cbc83a 	sub	r5,zero,r19
   84b08:	0087af80 	call	87af8 <_sbrk_r>
   84b0c:	00ffffc4 	movi	r3,-1
   84b10:	10c01326 	beq	r2,r3,84b60 <_malloc_trim_r+0xf8>
   84b14:	00800274 	movhi	r2,9
   84b18:	108d3c04 	addi	r2,r2,13552
   84b1c:	11000017 	ldw	r4,0(r2)
   84b20:	88c00217 	ldw	r3,8(r17)
   84b24:	94e5c83a 	sub	r18,r18,r19
   84b28:	94800054 	ori	r18,r18,1
   84b2c:	24e7c83a 	sub	r19,r4,r19
   84b30:	1c800115 	stw	r18,4(r3)
   84b34:	8009883a 	mov	r4,r16
   84b38:	14c00015 	stw	r19,0(r2)
   84b3c:	008d8100 	call	8d810 <__malloc_unlock>
   84b40:	00800044 	movi	r2,1
   84b44:	dfc00417 	ldw	ra,16(sp)
   84b48:	dcc00317 	ldw	r19,12(sp)
   84b4c:	dc800217 	ldw	r18,8(sp)
   84b50:	dc400117 	ldw	r17,4(sp)
   84b54:	dc000017 	ldw	r16,0(sp)
   84b58:	dec00504 	addi	sp,sp,20
   84b5c:	f800283a 	ret
   84b60:	8009883a 	mov	r4,r16
   84b64:	000b883a 	mov	r5,zero
   84b68:	0087af80 	call	87af8 <_sbrk_r>
   84b6c:	88c00217 	ldw	r3,8(r17)
   84b70:	014003c4 	movi	r5,15
   84b74:	10c9c83a 	sub	r4,r2,r3
   84b78:	293fd70e 	bge	r5,r4,84ad8 <_malloc_trim_r+0x70>
   84b7c:	01400274 	movhi	r5,9
   84b80:	29466604 	addi	r5,r5,6552
   84b84:	29400017 	ldw	r5,0(r5)
   84b88:	21000054 	ori	r4,r4,1
   84b8c:	19000115 	stw	r4,4(r3)
   84b90:	1145c83a 	sub	r2,r2,r5
   84b94:	01400274 	movhi	r5,9
   84b98:	294d3c04 	addi	r5,r5,13552
   84b9c:	28800015 	stw	r2,0(r5)
   84ba0:	003fcd06 	br	84ad8 <_malloc_trim_r+0x70>

00084ba4 <_free_r>:
   84ba4:	defffd04 	addi	sp,sp,-12
   84ba8:	dc000015 	stw	r16,0(sp)
   84bac:	dfc00215 	stw	ra,8(sp)
   84bb0:	dc400115 	stw	r17,4(sp)
   84bb4:	2821883a 	mov	r16,r5
   84bb8:	28004c26 	beq	r5,zero,84cec <_free_r+0x148>
   84bbc:	2023883a 	mov	r17,r4
   84bc0:	008d7f00 	call	8d7f0 <__malloc_lock>
   84bc4:	823fff17 	ldw	r8,-4(r16)
   84bc8:	00bfff84 	movi	r2,-2
   84bcc:	81bffe04 	addi	r6,r16,-8
   84bd0:	4084703a 	and	r2,r8,r2
   84bd4:	3087883a 	add	r3,r6,r2
   84bd8:	01400274 	movhi	r5,9
   84bdc:	2940df04 	addi	r5,r5,892
   84be0:	1a400117 	ldw	r9,4(r3)
   84be4:	29000217 	ldw	r4,8(r5)
   84be8:	01ffff04 	movi	r7,-4
   84bec:	49ce703a 	and	r7,r9,r7
   84bf0:	20c06526 	beq	r4,r3,84d88 <_free_r+0x1e4>
   84bf4:	19c00115 	stw	r7,4(r3)
   84bf8:	4200004c 	andi	r8,r8,1
   84bfc:	40003026 	beq	r8,zero,84cc0 <_free_r+0x11c>
   84c00:	0009883a 	mov	r4,zero
   84c04:	19d1883a 	add	r8,r3,r7
   84c08:	42000117 	ldw	r8,4(r8)
   84c0c:	4200004c 	andi	r8,r8,1
   84c10:	4000061e 	bne	r8,zero,84c2c <_free_r+0x88>
   84c14:	11c5883a 	add	r2,r2,r7
   84c18:	19c00217 	ldw	r7,8(r3)
   84c1c:	20004e26 	beq	r4,zero,84d58 <_free_r+0x1b4>
   84c20:	18c00317 	ldw	r3,12(r3)
   84c24:	38c00315 	stw	r3,12(r7)
   84c28:	19c00215 	stw	r7,8(r3)
   84c2c:	10c00054 	ori	r3,r2,1
   84c30:	30c00115 	stw	r3,4(r6)
   84c34:	3087883a 	add	r3,r6,r2
   84c38:	18800015 	stw	r2,0(r3)
   84c3c:	20001a1e 	bne	r4,zero,84ca8 <_free_r+0x104>
   84c40:	00c07fc4 	movi	r3,511
   84c44:	18802e2e 	bgeu	r3,r2,84d00 <_free_r+0x15c>
   84c48:	1006d27a 	srli	r3,r2,9
   84c4c:	01000104 	movi	r4,4
   84c50:	20c06636 	bltu	r4,r3,84dec <_free_r+0x248>
   84c54:	1008d1ba 	srli	r4,r2,6
   84c58:	21000e04 	addi	r4,r4,56
   84c5c:	210f883a 	add	r7,r4,r4
   84c60:	39cf883a 	add	r7,r7,r7
   84c64:	39cf883a 	add	r7,r7,r7
   84c68:	29cf883a 	add	r7,r5,r7
   84c6c:	38c00217 	ldw	r3,8(r7)
   84c70:	01400274 	movhi	r5,9
   84c74:	2940df04 	addi	r5,r5,892
   84c78:	19c06126 	beq	r3,r7,84e00 <_free_r+0x25c>
   84c7c:	013fff04 	movi	r4,-4
   84c80:	19400117 	ldw	r5,4(r3)
   84c84:	290a703a 	and	r5,r5,r4
   84c88:	1140022e 	bgeu	r2,r5,84c94 <_free_r+0xf0>
   84c8c:	18c00217 	ldw	r3,8(r3)
   84c90:	38fffb1e 	bne	r7,r3,84c80 <_free_r+0xdc>
   84c94:	18800317 	ldw	r2,12(r3)
   84c98:	30800315 	stw	r2,12(r6)
   84c9c:	30c00215 	stw	r3,8(r6)
   84ca0:	11800215 	stw	r6,8(r2)
   84ca4:	19800315 	stw	r6,12(r3)
   84ca8:	8809883a 	mov	r4,r17
   84cac:	dfc00217 	ldw	ra,8(sp)
   84cb0:	dc400117 	ldw	r17,4(sp)
   84cb4:	dc000017 	ldw	r16,0(sp)
   84cb8:	dec00304 	addi	sp,sp,12
   84cbc:	008d8101 	jmpi	8d810 <__malloc_unlock>
   84cc0:	813ffe17 	ldw	r4,-8(r16)
   84cc4:	2a400204 	addi	r9,r5,8
   84cc8:	310dc83a 	sub	r6,r6,r4
   84ccc:	32000217 	ldw	r8,8(r6)
   84cd0:	1105883a 	add	r2,r2,r4
   84cd4:	42404326 	beq	r8,r9,84de4 <_free_r+0x240>
   84cd8:	32400317 	ldw	r9,12(r6)
   84cdc:	0009883a 	mov	r4,zero
   84ce0:	42400315 	stw	r9,12(r8)
   84ce4:	4a000215 	stw	r8,8(r9)
   84ce8:	003fc606 	br	84c04 <_free_r+0x60>
   84cec:	dfc00217 	ldw	ra,8(sp)
   84cf0:	dc400117 	ldw	r17,4(sp)
   84cf4:	dc000017 	ldw	r16,0(sp)
   84cf8:	dec00304 	addi	sp,sp,12
   84cfc:	f800283a 	ret
   84d00:	1004d0fa 	srli	r2,r2,3
   84d04:	02000044 	movi	r8,1
   84d08:	29c00117 	ldw	r7,4(r5)
   84d0c:	1087883a 	add	r3,r2,r2
   84d10:	18c7883a 	add	r3,r3,r3
   84d14:	18c7883a 	add	r3,r3,r3
   84d18:	28c7883a 	add	r3,r5,r3
   84d1c:	1005d0ba 	srai	r2,r2,2
   84d20:	19000217 	ldw	r4,8(r3)
   84d24:	30c00315 	stw	r3,12(r6)
   84d28:	4084983a 	sll	r2,r8,r2
   84d2c:	31000215 	stw	r4,8(r6)
   84d30:	19800215 	stw	r6,8(r3)
   84d34:	11c4b03a 	or	r2,r2,r7
   84d38:	21800315 	stw	r6,12(r4)
   84d3c:	8809883a 	mov	r4,r17
   84d40:	28800115 	stw	r2,4(r5)
   84d44:	dfc00217 	ldw	ra,8(sp)
   84d48:	dc400117 	ldw	r17,4(sp)
   84d4c:	dc000017 	ldw	r16,0(sp)
   84d50:	dec00304 	addi	sp,sp,12
   84d54:	008d8101 	jmpi	8d810 <__malloc_unlock>
   84d58:	02000274 	movhi	r8,9
   84d5c:	4200e104 	addi	r8,r8,900
   84d60:	3a3faf1e 	bne	r7,r8,84c20 <_free_r+0x7c>
   84d64:	29800515 	stw	r6,20(r5)
   84d68:	29800415 	stw	r6,16(r5)
   84d6c:	10c00054 	ori	r3,r2,1
   84d70:	31c00315 	stw	r7,12(r6)
   84d74:	31c00215 	stw	r7,8(r6)
   84d78:	30c00115 	stw	r3,4(r6)
   84d7c:	308d883a 	add	r6,r6,r2
   84d80:	30800015 	stw	r2,0(r6)
   84d84:	003fc806 	br	84ca8 <_free_r+0x104>
   84d88:	4200004c 	andi	r8,r8,1
   84d8c:	3885883a 	add	r2,r7,r2
   84d90:	4000071e 	bne	r8,zero,84db0 <_free_r+0x20c>
   84d94:	81fffe17 	ldw	r7,-8(r16)
   84d98:	31cdc83a 	sub	r6,r6,r7
   84d9c:	30c00317 	ldw	r3,12(r6)
   84da0:	31000217 	ldw	r4,8(r6)
   84da4:	11c5883a 	add	r2,r2,r7
   84da8:	20c00315 	stw	r3,12(r4)
   84dac:	19000215 	stw	r4,8(r3)
   84db0:	00c00274 	movhi	r3,9
   84db4:	18c66704 	addi	r3,r3,6556
   84db8:	11000054 	ori	r4,r2,1
   84dbc:	18c00017 	ldw	r3,0(r3)
   84dc0:	31000115 	stw	r4,4(r6)
   84dc4:	29800215 	stw	r6,8(r5)
   84dc8:	10ffb736 	bltu	r2,r3,84ca8 <_free_r+0x104>
   84dcc:	00800274 	movhi	r2,9
   84dd0:	108d3304 	addi	r2,r2,13516
   84dd4:	11400017 	ldw	r5,0(r2)
   84dd8:	8809883a 	mov	r4,r17
   84ddc:	0084a680 	call	84a68 <_malloc_trim_r>
   84de0:	003fb106 	br	84ca8 <_free_r+0x104>
   84de4:	01000044 	movi	r4,1
   84de8:	003f8606 	br	84c04 <_free_r+0x60>
   84dec:	01000504 	movi	r4,20
   84df0:	20c00b36 	bltu	r4,r3,84e20 <_free_r+0x27c>
   84df4:	190016c4 	addi	r4,r3,91
   84df8:	210f883a 	add	r7,r4,r4
   84dfc:	003f9806 	br	84c60 <_free_r+0xbc>
   84e00:	2009d0ba 	srai	r4,r4,2
   84e04:	00800044 	movi	r2,1
   84e08:	29c00117 	ldw	r7,4(r5)
   84e0c:	1108983a 	sll	r4,r2,r4
   84e10:	1805883a 	mov	r2,r3
   84e14:	21c8b03a 	or	r4,r4,r7
   84e18:	29000115 	stw	r4,4(r5)
   84e1c:	003f9e06 	br	84c98 <_free_r+0xf4>
   84e20:	01001504 	movi	r4,84
   84e24:	20c00436 	bltu	r4,r3,84e38 <_free_r+0x294>
   84e28:	1008d33a 	srli	r4,r2,12
   84e2c:	21001b84 	addi	r4,r4,110
   84e30:	210f883a 	add	r7,r4,r4
   84e34:	003f8a06 	br	84c60 <_free_r+0xbc>
   84e38:	01005504 	movi	r4,340
   84e3c:	20c00436 	bltu	r4,r3,84e50 <_free_r+0x2ac>
   84e40:	1008d3fa 	srli	r4,r2,15
   84e44:	21001dc4 	addi	r4,r4,119
   84e48:	210f883a 	add	r7,r4,r4
   84e4c:	003f8406 	br	84c60 <_free_r+0xbc>
   84e50:	01015504 	movi	r4,1364
   84e54:	20c00436 	bltu	r4,r3,84e68 <_free_r+0x2c4>
   84e58:	1008d4ba 	srli	r4,r2,18
   84e5c:	21001f04 	addi	r4,r4,124
   84e60:	210f883a 	add	r7,r4,r4
   84e64:	003f7e06 	br	84c60 <_free_r+0xbc>
   84e68:	01c03f04 	movi	r7,252
   84e6c:	01001f84 	movi	r4,126
   84e70:	003f7b06 	br	84c60 <_free_r+0xbc>

00084e74 <__sfvwrite_r>:
   84e74:	30800217 	ldw	r2,8(r6)
   84e78:	defff404 	addi	sp,sp,-48
   84e7c:	dcc00515 	stw	r19,20(sp)
   84e80:	dfc00b15 	stw	ra,44(sp)
   84e84:	df000a15 	stw	fp,40(sp)
   84e88:	ddc00915 	stw	r23,36(sp)
   84e8c:	dd800815 	stw	r22,32(sp)
   84e90:	dd400715 	stw	r21,28(sp)
   84e94:	dd000615 	stw	r20,24(sp)
   84e98:	dc800415 	stw	r18,16(sp)
   84e9c:	dc400315 	stw	r17,12(sp)
   84ea0:	dc000215 	stw	r16,8(sp)
   84ea4:	3027883a 	mov	r19,r6
   84ea8:	10001d26 	beq	r2,zero,84f20 <__sfvwrite_r+0xac>
   84eac:	2880030b 	ldhu	r2,12(r5)
   84eb0:	202b883a 	mov	r21,r4
   84eb4:	2821883a 	mov	r16,r5
   84eb8:	10c0020c 	andi	r3,r2,8
   84ebc:	18002526 	beq	r3,zero,84f54 <__sfvwrite_r+0xe0>
   84ec0:	28c00417 	ldw	r3,16(r5)
   84ec4:	18002326 	beq	r3,zero,84f54 <__sfvwrite_r+0xe0>
   84ec8:	10c0008c 	andi	r3,r2,2
   84ecc:	9c400017 	ldw	r17,0(r19)
   84ed0:	18002826 	beq	r3,zero,84f74 <__sfvwrite_r+0x100>
   84ed4:	0029883a 	mov	r20,zero
   84ed8:	0025883a 	mov	r18,zero
   84edc:	05810004 	movi	r22,1024
   84ee0:	a00d883a 	mov	r6,r20
   84ee4:	a809883a 	mov	r4,r21
   84ee8:	90004726 	beq	r18,zero,85008 <__sfvwrite_r+0x194>
   84eec:	900f883a 	mov	r7,r18
   84ef0:	81400717 	ldw	r5,28(r16)
   84ef4:	b480012e 	bgeu	r22,r18,84efc <__sfvwrite_r+0x88>
   84ef8:	01c10004 	movi	r7,1024
   84efc:	80800917 	ldw	r2,36(r16)
   84f00:	103ee83a 	callr	r2
   84f04:	00804c0e 	bge	zero,r2,85038 <__sfvwrite_r+0x1c4>
   84f08:	98c00217 	ldw	r3,8(r19)
   84f0c:	a0a9883a 	add	r20,r20,r2
   84f10:	90a5c83a 	sub	r18,r18,r2
   84f14:	1885c83a 	sub	r2,r3,r2
   84f18:	98800215 	stw	r2,8(r19)
   84f1c:	103ff01e 	bne	r2,zero,84ee0 <__sfvwrite_r+0x6c>
   84f20:	0005883a 	mov	r2,zero
   84f24:	dfc00b17 	ldw	ra,44(sp)
   84f28:	df000a17 	ldw	fp,40(sp)
   84f2c:	ddc00917 	ldw	r23,36(sp)
   84f30:	dd800817 	ldw	r22,32(sp)
   84f34:	dd400717 	ldw	r21,28(sp)
   84f38:	dd000617 	ldw	r20,24(sp)
   84f3c:	dcc00517 	ldw	r19,20(sp)
   84f40:	dc800417 	ldw	r18,16(sp)
   84f44:	dc400317 	ldw	r17,12(sp)
   84f48:	dc000217 	ldw	r16,8(sp)
   84f4c:	dec00c04 	addi	sp,sp,48
   84f50:	f800283a 	ret
   84f54:	a809883a 	mov	r4,r21
   84f58:	800b883a 	mov	r5,r16
   84f5c:	0082ab40 	call	82ab4 <__swsetup_r>
   84f60:	1000e81e 	bne	r2,zero,85304 <__sfvwrite_r+0x490>
   84f64:	8080030b 	ldhu	r2,12(r16)
   84f68:	9c400017 	ldw	r17,0(r19)
   84f6c:	10c0008c 	andi	r3,r2,2
   84f70:	183fd81e 	bne	r3,zero,84ed4 <__sfvwrite_r+0x60>
   84f74:	10c0004c 	andi	r3,r2,1
   84f78:	002d883a 	mov	r22,zero
   84f7c:	1800331e 	bne	r3,zero,8504c <__sfvwrite_r+0x1d8>
   84f80:	0025883a 	mov	r18,zero
   84f84:	90001c26 	beq	r18,zero,84ff8 <__sfvwrite_r+0x184>
   84f88:	10c0800c 	andi	r3,r2,512
   84f8c:	85000217 	ldw	r20,8(r16)
   84f90:	18006f26 	beq	r3,zero,85150 <__sfvwrite_r+0x2dc>
   84f94:	95008936 	bltu	r18,r20,851bc <__sfvwrite_r+0x348>
   84f98:	10c1200c 	andi	r3,r2,1152
   84f9c:	1800a11e 	bne	r3,zero,85224 <__sfvwrite_r+0x3b0>
   84fa0:	81000017 	ldw	r4,0(r16)
   84fa4:	a02f883a 	mov	r23,r20
   84fa8:	a039883a 	mov	fp,r20
   84fac:	9029883a 	mov	r20,r18
   84fb0:	b00b883a 	mov	r5,r22
   84fb4:	b80d883a 	mov	r6,r23
   84fb8:	00860c00 	call	860c0 <memmove>
   84fbc:	81400217 	ldw	r5,8(r16)
   84fc0:	81000017 	ldw	r4,0(r16)
   84fc4:	9005883a 	mov	r2,r18
   84fc8:	2f39c83a 	sub	fp,r5,fp
   84fcc:	25c7883a 	add	r3,r4,r23
   84fd0:	87000215 	stw	fp,8(r16)
   84fd4:	80c00015 	stw	r3,0(r16)
   84fd8:	98c00217 	ldw	r3,8(r19)
   84fdc:	b0ad883a 	add	r22,r22,r2
   84fe0:	90a5c83a 	sub	r18,r18,r2
   84fe4:	1d29c83a 	sub	r20,r3,r20
   84fe8:	9d000215 	stw	r20,8(r19)
   84fec:	a03fcc26 	beq	r20,zero,84f20 <__sfvwrite_r+0xac>
   84ff0:	8080030b 	ldhu	r2,12(r16)
   84ff4:	903fe41e 	bne	r18,zero,84f88 <__sfvwrite_r+0x114>
   84ff8:	8d800017 	ldw	r22,0(r17)
   84ffc:	8c800117 	ldw	r18,4(r17)
   85000:	8c400204 	addi	r17,r17,8
   85004:	003fdf06 	br	84f84 <__sfvwrite_r+0x110>
   85008:	8d000017 	ldw	r20,0(r17)
   8500c:	8c800117 	ldw	r18,4(r17)
   85010:	8c400204 	addi	r17,r17,8
   85014:	003fb206 	br	84ee0 <__sfvwrite_r+0x6c>
   85018:	00873380 	call	87338 <_realloc_r>
   8501c:	1039883a 	mov	fp,r2
   85020:	10009d1e 	bne	r2,zero,85298 <__sfvwrite_r+0x424>
   85024:	81400417 	ldw	r5,16(r16)
   85028:	a809883a 	mov	r4,r21
   8502c:	0084ba40 	call	84ba4 <_free_r>
   85030:	00800304 	movi	r2,12
   85034:	a8800015 	stw	r2,0(r21)
   85038:	80c0030b 	ldhu	r3,12(r16)
   8503c:	00bfffc4 	movi	r2,-1
   85040:	18c01014 	ori	r3,r3,64
   85044:	80c0030d 	sth	r3,12(r16)
   85048:	003fb606 	br	84f24 <__sfvwrite_r+0xb0>
   8504c:	0007883a 	mov	r3,zero
   85050:	0039883a 	mov	fp,zero
   85054:	0025883a 	mov	r18,zero
   85058:	90001f26 	beq	r18,zero,850d8 <__sfvwrite_r+0x264>
   8505c:	18006826 	beq	r3,zero,85200 <__sfvwrite_r+0x38c>
   85060:	b02f883a 	mov	r23,r22
   85064:	9580012e 	bgeu	r18,r22,8506c <__sfvwrite_r+0x1f8>
   85068:	902f883a 	mov	r23,r18
   8506c:	81000017 	ldw	r4,0(r16)
   85070:	80800417 	ldw	r2,16(r16)
   85074:	b829883a 	mov	r20,r23
   85078:	81800217 	ldw	r6,8(r16)
   8507c:	81c00517 	ldw	r7,20(r16)
   85080:	1100022e 	bgeu	r2,r4,8508c <__sfvwrite_r+0x218>
   85084:	31d1883a 	add	r8,r6,r7
   85088:	45c01816 	blt	r8,r23,850ec <__sfvwrite_r+0x278>
   8508c:	b9c03f16 	blt	r23,r7,8518c <__sfvwrite_r+0x318>
   85090:	80800917 	ldw	r2,36(r16)
   85094:	81400717 	ldw	r5,28(r16)
   85098:	a809883a 	mov	r4,r21
   8509c:	d8c00115 	stw	r3,4(sp)
   850a0:	e00d883a 	mov	r6,fp
   850a4:	103ee83a 	callr	r2
   850a8:	1029883a 	mov	r20,r2
   850ac:	d8c00117 	ldw	r3,4(sp)
   850b0:	00bfe10e 	bge	zero,r2,85038 <__sfvwrite_r+0x1c4>
   850b4:	b52dc83a 	sub	r22,r22,r20
   850b8:	b0001f26 	beq	r22,zero,85138 <__sfvwrite_r+0x2c4>
   850bc:	98800217 	ldw	r2,8(r19)
   850c0:	e539883a 	add	fp,fp,r20
   850c4:	9525c83a 	sub	r18,r18,r20
   850c8:	1529c83a 	sub	r20,r2,r20
   850cc:	9d000215 	stw	r20,8(r19)
   850d0:	a03f9326 	beq	r20,zero,84f20 <__sfvwrite_r+0xac>
   850d4:	903fe11e 	bne	r18,zero,8505c <__sfvwrite_r+0x1e8>
   850d8:	8f000017 	ldw	fp,0(r17)
   850dc:	8c800117 	ldw	r18,4(r17)
   850e0:	0007883a 	mov	r3,zero
   850e4:	8c400204 	addi	r17,r17,8
   850e8:	003fdb06 	br	85058 <__sfvwrite_r+0x1e4>
   850ec:	400d883a 	mov	r6,r8
   850f0:	e00b883a 	mov	r5,fp
   850f4:	d8c00115 	stw	r3,4(sp)
   850f8:	da000015 	stw	r8,0(sp)
   850fc:	00860c00 	call	860c0 <memmove>
   85100:	da000017 	ldw	r8,0(sp)
   85104:	80800017 	ldw	r2,0(r16)
   85108:	a809883a 	mov	r4,r21
   8510c:	800b883a 	mov	r5,r16
   85110:	1205883a 	add	r2,r2,r8
   85114:	80800015 	stw	r2,0(r16)
   85118:	da000015 	stw	r8,0(sp)
   8511c:	00844500 	call	84450 <_fflush_r>
   85120:	d8c00117 	ldw	r3,4(sp)
   85124:	da000017 	ldw	r8,0(sp)
   85128:	103fc31e 	bne	r2,zero,85038 <__sfvwrite_r+0x1c4>
   8512c:	4029883a 	mov	r20,r8
   85130:	b52dc83a 	sub	r22,r22,r20
   85134:	b03fe11e 	bne	r22,zero,850bc <__sfvwrite_r+0x248>
   85138:	a809883a 	mov	r4,r21
   8513c:	800b883a 	mov	r5,r16
   85140:	00844500 	call	84450 <_fflush_r>
   85144:	103fbc1e 	bne	r2,zero,85038 <__sfvwrite_r+0x1c4>
   85148:	0007883a 	mov	r3,zero
   8514c:	003fdb06 	br	850bc <__sfvwrite_r+0x248>
   85150:	81000017 	ldw	r4,0(r16)
   85154:	80800417 	ldw	r2,16(r16)
   85158:	1100012e 	bgeu	r2,r4,85160 <__sfvwrite_r+0x2ec>
   8515c:	a4805836 	bltu	r20,r18,852c0 <__sfvwrite_r+0x44c>
   85160:	81c00517 	ldw	r7,20(r16)
   85164:	91c01a36 	bltu	r18,r7,851d0 <__sfvwrite_r+0x35c>
   85168:	80800917 	ldw	r2,36(r16)
   8516c:	81400717 	ldw	r5,28(r16)
   85170:	a809883a 	mov	r4,r21
   85174:	b00d883a 	mov	r6,r22
   85178:	103ee83a 	callr	r2
   8517c:	1029883a 	mov	r20,r2
   85180:	00bfad0e 	bge	zero,r2,85038 <__sfvwrite_r+0x1c4>
   85184:	a005883a 	mov	r2,r20
   85188:	003f9306 	br	84fd8 <__sfvwrite_r+0x164>
   8518c:	b80d883a 	mov	r6,r23
   85190:	e00b883a 	mov	r5,fp
   85194:	d8c00115 	stw	r3,4(sp)
   85198:	00860c00 	call	860c0 <memmove>
   8519c:	80800217 	ldw	r2,8(r16)
   851a0:	81000017 	ldw	r4,0(r16)
   851a4:	d8c00117 	ldw	r3,4(sp)
   851a8:	15c5c83a 	sub	r2,r2,r23
   851ac:	25ef883a 	add	r23,r4,r23
   851b0:	80800215 	stw	r2,8(r16)
   851b4:	85c00015 	stw	r23,0(r16)
   851b8:	003fbe06 	br	850b4 <__sfvwrite_r+0x240>
   851bc:	81000017 	ldw	r4,0(r16)
   851c0:	9039883a 	mov	fp,r18
   851c4:	9029883a 	mov	r20,r18
   851c8:	902f883a 	mov	r23,r18
   851cc:	003f7806 	br	84fb0 <__sfvwrite_r+0x13c>
   851d0:	b00b883a 	mov	r5,r22
   851d4:	900d883a 	mov	r6,r18
   851d8:	00860c00 	call	860c0 <memmove>
   851dc:	80c00217 	ldw	r3,8(r16)
   851e0:	80800017 	ldw	r2,0(r16)
   851e4:	9029883a 	mov	r20,r18
   851e8:	1c87c83a 	sub	r3,r3,r18
   851ec:	1485883a 	add	r2,r2,r18
   851f0:	80800015 	stw	r2,0(r16)
   851f4:	80c00215 	stw	r3,8(r16)
   851f8:	9005883a 	mov	r2,r18
   851fc:	003f7606 	br	84fd8 <__sfvwrite_r+0x164>
   85200:	e009883a 	mov	r4,fp
   85204:	01400284 	movi	r5,10
   85208:	900d883a 	mov	r6,r18
   8520c:	0085ecc0 	call	85ecc <memchr>
   85210:	10003926 	beq	r2,zero,852f8 <__sfvwrite_r+0x484>
   85214:	15800044 	addi	r22,r2,1
   85218:	b72dc83a 	sub	r22,r22,fp
   8521c:	00c00044 	movi	r3,1
   85220:	003f8f06 	br	85060 <__sfvwrite_r+0x1ec>
   85224:	81000517 	ldw	r4,20(r16)
   85228:	81400417 	ldw	r5,16(r16)
   8522c:	80c00017 	ldw	r3,0(r16)
   85230:	210d883a 	add	r6,r4,r4
   85234:	3109883a 	add	r4,r6,r4
   85238:	2028d7fa 	srli	r20,r4,31
   8523c:	196fc83a 	sub	r23,r3,r5
   85240:	b9800044 	addi	r6,r23,1
   85244:	a109883a 	add	r4,r20,r4
   85248:	2029d07a 	srai	r20,r4,1
   8524c:	348d883a 	add	r6,r6,r18
   85250:	a180272e 	bgeu	r20,r6,852f0 <__sfvwrite_r+0x47c>
   85254:	3029883a 	mov	r20,r6
   85258:	1081000c 	andi	r2,r2,1024
   8525c:	a809883a 	mov	r4,r21
   85260:	103f6d26 	beq	r2,zero,85018 <__sfvwrite_r+0x1a4>
   85264:	300b883a 	mov	r5,r6
   85268:	00857080 	call	85708 <_malloc_r>
   8526c:	1039883a 	mov	fp,r2
   85270:	103f6f26 	beq	r2,zero,85030 <__sfvwrite_r+0x1bc>
   85274:	81400417 	ldw	r5,16(r16)
   85278:	1009883a 	mov	r4,r2
   8527c:	b80d883a 	mov	r6,r23
   85280:	0085fb40 	call	85fb4 <memcpy>
   85284:	8080030b 	ldhu	r2,12(r16)
   85288:	00fedfc4 	movi	r3,-1153
   8528c:	10c4703a 	and	r2,r2,r3
   85290:	10802014 	ori	r2,r2,128
   85294:	8080030d 	sth	r2,12(r16)
   85298:	e5c9883a 	add	r4,fp,r23
   8529c:	a5c7c83a 	sub	r3,r20,r23
   852a0:	87000415 	stw	fp,16(r16)
   852a4:	85000515 	stw	r20,20(r16)
   852a8:	81000015 	stw	r4,0(r16)
   852ac:	9039883a 	mov	fp,r18
   852b0:	80c00215 	stw	r3,8(r16)
   852b4:	9029883a 	mov	r20,r18
   852b8:	902f883a 	mov	r23,r18
   852bc:	003f3c06 	br	84fb0 <__sfvwrite_r+0x13c>
   852c0:	b00b883a 	mov	r5,r22
   852c4:	a00d883a 	mov	r6,r20
   852c8:	00860c00 	call	860c0 <memmove>
   852cc:	80800017 	ldw	r2,0(r16)
   852d0:	a809883a 	mov	r4,r21
   852d4:	800b883a 	mov	r5,r16
   852d8:	1505883a 	add	r2,r2,r20
   852dc:	80800015 	stw	r2,0(r16)
   852e0:	00844500 	call	84450 <_fflush_r>
   852e4:	103f541e 	bne	r2,zero,85038 <__sfvwrite_r+0x1c4>
   852e8:	a005883a 	mov	r2,r20
   852ec:	003f3a06 	br	84fd8 <__sfvwrite_r+0x164>
   852f0:	a00d883a 	mov	r6,r20
   852f4:	003fd806 	br	85258 <__sfvwrite_r+0x3e4>
   852f8:	95800044 	addi	r22,r18,1
   852fc:	00c00044 	movi	r3,1
   85300:	003f5706 	br	85060 <__sfvwrite_r+0x1ec>
   85304:	80c0030b 	ldhu	r3,12(r16)
   85308:	00bfffc4 	movi	r2,-1
   8530c:	18c01014 	ori	r3,r3,64
   85310:	80c0030d 	sth	r3,12(r16)
   85314:	00c00244 	movi	r3,9
   85318:	a8c00015 	stw	r3,0(r21)
   8531c:	003f0106 	br	84f24 <__sfvwrite_r+0xb0>

00085320 <_fwalk>:
   85320:	defff904 	addi	sp,sp,-28
   85324:	dcc00315 	stw	r19,12(sp)
   85328:	24c0b804 	addi	r19,r4,736
   8532c:	dd400515 	stw	r21,20(sp)
   85330:	dd000415 	stw	r20,16(sp)
   85334:	dfc00615 	stw	ra,24(sp)
   85338:	dc800215 	stw	r18,8(sp)
   8533c:	dc400115 	stw	r17,4(sp)
   85340:	dc000015 	stw	r16,0(sp)
   85344:	282b883a 	mov	r21,r5
   85348:	0029883a 	mov	r20,zero
   8534c:	0084a280 	call	84a28 <__sfp_lock_acquire>
   85350:	98001226 	beq	r19,zero,8539c <_fwalk+0x7c>
   85354:	04bfffc4 	movi	r18,-1
   85358:	9c400117 	ldw	r17,4(r19)
   8535c:	9c000217 	ldw	r16,8(r19)
   85360:	8c7fffc4 	addi	r17,r17,-1
   85364:	88000b16 	blt	r17,zero,85394 <_fwalk+0x74>
   85368:	84000304 	addi	r16,r16,12
   8536c:	80c0000f 	ldh	r3,0(r16)
   85370:	8c7fffc4 	addi	r17,r17,-1
   85374:	813ffd04 	addi	r4,r16,-12
   85378:	18000426 	beq	r3,zero,8538c <_fwalk+0x6c>
   8537c:	80c0008f 	ldh	r3,2(r16)
   85380:	1c800226 	beq	r3,r18,8538c <_fwalk+0x6c>
   85384:	a83ee83a 	callr	r21
   85388:	a0a8b03a 	or	r20,r20,r2
   8538c:	84001a04 	addi	r16,r16,104
   85390:	8cbff61e 	bne	r17,r18,8536c <_fwalk+0x4c>
   85394:	9cc00017 	ldw	r19,0(r19)
   85398:	983fef1e 	bne	r19,zero,85358 <_fwalk+0x38>
   8539c:	0084a2c0 	call	84a2c <__sfp_lock_release>
   853a0:	a005883a 	mov	r2,r20
   853a4:	dfc00617 	ldw	ra,24(sp)
   853a8:	dd400517 	ldw	r21,20(sp)
   853ac:	dd000417 	ldw	r20,16(sp)
   853b0:	dcc00317 	ldw	r19,12(sp)
   853b4:	dc800217 	ldw	r18,8(sp)
   853b8:	dc400117 	ldw	r17,4(sp)
   853bc:	dc000017 	ldw	r16,0(sp)
   853c0:	dec00704 	addi	sp,sp,28
   853c4:	f800283a 	ret

000853c8 <_fwalk_reent>:
   853c8:	defff804 	addi	sp,sp,-32
   853cc:	dcc00315 	stw	r19,12(sp)
   853d0:	24c0b804 	addi	r19,r4,736
   853d4:	dd800615 	stw	r22,24(sp)
   853d8:	dd400515 	stw	r21,20(sp)
   853dc:	dd000415 	stw	r20,16(sp)
   853e0:	dfc00715 	stw	ra,28(sp)
   853e4:	dc800215 	stw	r18,8(sp)
   853e8:	dc400115 	stw	r17,4(sp)
   853ec:	dc000015 	stw	r16,0(sp)
   853f0:	2029883a 	mov	r20,r4
   853f4:	282b883a 	mov	r21,r5
   853f8:	002d883a 	mov	r22,zero
   853fc:	0084a280 	call	84a28 <__sfp_lock_acquire>
   85400:	98001326 	beq	r19,zero,85450 <_fwalk_reent+0x88>
   85404:	04bfffc4 	movi	r18,-1
   85408:	9c400117 	ldw	r17,4(r19)
   8540c:	9c000217 	ldw	r16,8(r19)
   85410:	8c7fffc4 	addi	r17,r17,-1
   85414:	88000c16 	blt	r17,zero,85448 <_fwalk_reent+0x80>
   85418:	84000304 	addi	r16,r16,12
   8541c:	80c0000f 	ldh	r3,0(r16)
   85420:	8c7fffc4 	addi	r17,r17,-1
   85424:	817ffd04 	addi	r5,r16,-12
   85428:	18000526 	beq	r3,zero,85440 <_fwalk_reent+0x78>
   8542c:	80c0008f 	ldh	r3,2(r16)
   85430:	a009883a 	mov	r4,r20
   85434:	1c800226 	beq	r3,r18,85440 <_fwalk_reent+0x78>
   85438:	a83ee83a 	callr	r21
   8543c:	b0acb03a 	or	r22,r22,r2
   85440:	84001a04 	addi	r16,r16,104
   85444:	8cbff51e 	bne	r17,r18,8541c <_fwalk_reent+0x54>
   85448:	9cc00017 	ldw	r19,0(r19)
   8544c:	983fee1e 	bne	r19,zero,85408 <_fwalk_reent+0x40>
   85450:	0084a2c0 	call	84a2c <__sfp_lock_release>
   85454:	b005883a 	mov	r2,r22
   85458:	dfc00717 	ldw	ra,28(sp)
   8545c:	dd800617 	ldw	r22,24(sp)
   85460:	dd400517 	ldw	r21,20(sp)
   85464:	dd000417 	ldw	r20,16(sp)
   85468:	dcc00317 	ldw	r19,12(sp)
   8546c:	dc800217 	ldw	r18,8(sp)
   85470:	dc400117 	ldw	r17,4(sp)
   85474:	dc000017 	ldw	r16,0(sp)
   85478:	dec00804 	addi	sp,sp,32
   8547c:	f800283a 	ret

00085480 <_setlocale_r>:
   85480:	defffe04 	addi	sp,sp,-8
   85484:	dc000015 	stw	r16,0(sp)
   85488:	dfc00115 	stw	ra,4(sp)
   8548c:	3021883a 	mov	r16,r6
   85490:	30000526 	beq	r6,zero,854a8 <_setlocale_r+0x28>
   85494:	3009883a 	mov	r4,r6
   85498:	01400274 	movhi	r5,9
   8549c:	297f1904 	addi	r5,r5,-924
   854a0:	0087c980 	call	87c98 <strcmp>
   854a4:	1000061e 	bne	r2,zero,854c0 <_setlocale_r+0x40>
   854a8:	00800274 	movhi	r2,9
   854ac:	10befa04 	addi	r2,r2,-1048
   854b0:	dfc00117 	ldw	ra,4(sp)
   854b4:	dc000017 	ldw	r16,0(sp)
   854b8:	dec00204 	addi	sp,sp,8
   854bc:	f800283a 	ret
   854c0:	8009883a 	mov	r4,r16
   854c4:	01400274 	movhi	r5,9
   854c8:	297efa04 	addi	r5,r5,-1048
   854cc:	0087c980 	call	87c98 <strcmp>
   854d0:	103ff526 	beq	r2,zero,854a8 <_setlocale_r+0x28>
   854d4:	8009883a 	mov	r4,r16
   854d8:	01400274 	movhi	r5,9
   854dc:	297f0404 	addi	r5,r5,-1008
   854e0:	0087c980 	call	87c98 <strcmp>
   854e4:	103ff026 	beq	r2,zero,854a8 <_setlocale_r+0x28>
   854e8:	0005883a 	mov	r2,zero
   854ec:	003ff006 	br	854b0 <_setlocale_r+0x30>

000854f0 <__locale_charset>:
   854f0:	00800274 	movhi	r2,9
   854f4:	1080c904 	addi	r2,r2,804
   854f8:	f800283a 	ret

000854fc <__locale_mb_cur_max>:
   854fc:	00800274 	movhi	r2,9
   85500:	10866504 	addi	r2,r2,6548
   85504:	10800017 	ldw	r2,0(r2)
   85508:	f800283a 	ret

0008550c <__locale_msgcharset>:
   8550c:	00800274 	movhi	r2,9
   85510:	1080c104 	addi	r2,r2,772
   85514:	f800283a 	ret

00085518 <__locale_cjk_lang>:
   85518:	0005883a 	mov	r2,zero
   8551c:	f800283a 	ret

00085520 <_localeconv_r>:
   85520:	00800274 	movhi	r2,9
   85524:	1080d104 	addi	r2,r2,836
   85528:	f800283a 	ret

0008552c <setlocale>:
   8552c:	00c00274 	movhi	r3,9
   85530:	18c66404 	addi	r3,r3,6544
   85534:	2005883a 	mov	r2,r4
   85538:	19000017 	ldw	r4,0(r3)
   8553c:	280d883a 	mov	r6,r5
   85540:	100b883a 	mov	r5,r2
   85544:	00854801 	jmpi	85480 <_setlocale_r>

00085548 <localeconv>:
   85548:	00800274 	movhi	r2,9
   8554c:	1080d104 	addi	r2,r2,836
   85550:	f800283a 	ret

00085554 <__smakebuf_r>:
   85554:	2880030b 	ldhu	r2,12(r5)
   85558:	deffec04 	addi	sp,sp,-80
   8555c:	dc000f15 	stw	r16,60(sp)
   85560:	dfc01315 	stw	ra,76(sp)
   85564:	dcc01215 	stw	r19,72(sp)
   85568:	dc801115 	stw	r18,68(sp)
   8556c:	dc401015 	stw	r17,64(sp)
   85570:	10c0008c 	andi	r3,r2,2
   85574:	2821883a 	mov	r16,r5
   85578:	18003a1e 	bne	r3,zero,85664 <__smakebuf_r+0x110>
   8557c:	2940038f 	ldh	r5,14(r5)
   85580:	2023883a 	mov	r17,r4
   85584:	28001b16 	blt	r5,zero,855f4 <__smakebuf_r+0xa0>
   85588:	d80d883a 	mov	r6,sp
   8558c:	008979c0 	call	8979c <_fstat_r>
   85590:	10001716 	blt	r2,zero,855f0 <__smakebuf_r+0x9c>
   85594:	d8800117 	ldw	r2,4(sp)
   85598:	00e00014 	movui	r3,32768
   8559c:	10bc000c 	andi	r2,r2,61440
   855a0:	10c03e26 	beq	r2,r3,8569c <__smakebuf_r+0x148>
   855a4:	80c0030b 	ldhu	r3,12(r16)
   855a8:	18c20014 	ori	r3,r3,2048
   855ac:	80c0030d 	sth	r3,12(r16)
   855b0:	00c80004 	movi	r3,8192
   855b4:	10c0431e 	bne	r2,r3,856c4 <__smakebuf_r+0x170>
   855b8:	8140038f 	ldh	r5,14(r16)
   855bc:	8809883a 	mov	r4,r17
   855c0:	00898040 	call	89804 <_isatty_r>
   855c4:	10004d26 	beq	r2,zero,856fc <__smakebuf_r+0x1a8>
   855c8:	80c0030b 	ldhu	r3,12(r16)
   855cc:	04c00044 	movi	r19,1
   855d0:	808010c4 	addi	r2,r16,67
   855d4:	1cc6b03a 	or	r3,r3,r19
   855d8:	80c0030d 	sth	r3,12(r16)
   855dc:	80800015 	stw	r2,0(r16)
   855e0:	80800415 	stw	r2,16(r16)
   855e4:	84c00515 	stw	r19,20(r16)
   855e8:	04810004 	movi	r18,1024
   855ec:	00000706 	br	8560c <__smakebuf_r+0xb8>
   855f0:	8080030b 	ldhu	r2,12(r16)
   855f4:	10c0200c 	andi	r3,r2,128
   855f8:	1800261e 	bne	r3,zero,85694 <__smakebuf_r+0x140>
   855fc:	04810004 	movi	r18,1024
   85600:	10820014 	ori	r2,r2,2048
   85604:	8080030d 	sth	r2,12(r16)
   85608:	0027883a 	mov	r19,zero
   8560c:	8809883a 	mov	r4,r17
   85610:	900b883a 	mov	r5,r18
   85614:	00857080 	call	85708 <_malloc_r>
   85618:	10002d26 	beq	r2,zero,856d0 <__smakebuf_r+0x17c>
   8561c:	80c0030b 	ldhu	r3,12(r16)
   85620:	01000234 	movhi	r4,8
   85624:	2111b504 	addi	r4,r4,18132
   85628:	89000f15 	stw	r4,60(r17)
   8562c:	18c02014 	ori	r3,r3,128
   85630:	80c0030d 	sth	r3,12(r16)
   85634:	80800015 	stw	r2,0(r16)
   85638:	80800415 	stw	r2,16(r16)
   8563c:	84800515 	stw	r18,20(r16)
   85640:	98000d26 	beq	r19,zero,85678 <__smakebuf_r+0x124>
   85644:	8140038f 	ldh	r5,14(r16)
   85648:	8809883a 	mov	r4,r17
   8564c:	00898040 	call	89804 <_isatty_r>
   85650:	10000926 	beq	r2,zero,85678 <__smakebuf_r+0x124>
   85654:	8080030b 	ldhu	r2,12(r16)
   85658:	10800054 	ori	r2,r2,1
   8565c:	8080030d 	sth	r2,12(r16)
   85660:	00000506 	br	85678 <__smakebuf_r+0x124>
   85664:	288010c4 	addi	r2,r5,67
   85668:	28800015 	stw	r2,0(r5)
   8566c:	28800415 	stw	r2,16(r5)
   85670:	00800044 	movi	r2,1
   85674:	28800515 	stw	r2,20(r5)
   85678:	dfc01317 	ldw	ra,76(sp)
   8567c:	dcc01217 	ldw	r19,72(sp)
   85680:	dc801117 	ldw	r18,68(sp)
   85684:	dc401017 	ldw	r17,64(sp)
   85688:	dc000f17 	ldw	r16,60(sp)
   8568c:	dec01404 	addi	sp,sp,80
   85690:	f800283a 	ret
   85694:	04801004 	movi	r18,64
   85698:	003fd906 	br	85600 <__smakebuf_r+0xac>
   8569c:	81000a17 	ldw	r4,40(r16)
   856a0:	00c00234 	movhi	r3,8
   856a4:	18df0d04 	addi	r3,r3,31796
   856a8:	20ffbe1e 	bne	r4,r3,855a4 <__smakebuf_r+0x50>
   856ac:	80c0030b 	ldhu	r3,12(r16)
   856b0:	01010004 	movi	r4,1024
   856b4:	81001315 	stw	r4,76(r16)
   856b8:	1906b03a 	or	r3,r3,r4
   856bc:	80c0030d 	sth	r3,12(r16)
   856c0:	003fbb06 	br	855b0 <__smakebuf_r+0x5c>
   856c4:	0027883a 	mov	r19,zero
   856c8:	04810004 	movi	r18,1024
   856cc:	003fcf06 	br	8560c <__smakebuf_r+0xb8>
   856d0:	8080030b 	ldhu	r2,12(r16)
   856d4:	10c0800c 	andi	r3,r2,512
   856d8:	183fe71e 	bne	r3,zero,85678 <__smakebuf_r+0x124>
   856dc:	10800094 	ori	r2,r2,2
   856e0:	80c010c4 	addi	r3,r16,67
   856e4:	8080030d 	sth	r2,12(r16)
   856e8:	00800044 	movi	r2,1
   856ec:	80c00015 	stw	r3,0(r16)
   856f0:	80c00415 	stw	r3,16(r16)
   856f4:	80800515 	stw	r2,20(r16)
   856f8:	003fdf06 	br	85678 <__smakebuf_r+0x124>
   856fc:	04c00044 	movi	r19,1
   85700:	04810004 	movi	r18,1024
   85704:	003fc106 	br	8560c <__smakebuf_r+0xb8>

00085708 <_malloc_r>:
   85708:	defff504 	addi	sp,sp,-44
   8570c:	dc800315 	stw	r18,12(sp)
   85710:	dfc00a15 	stw	ra,40(sp)
   85714:	df000915 	stw	fp,36(sp)
   85718:	ddc00815 	stw	r23,32(sp)
   8571c:	dd800715 	stw	r22,28(sp)
   85720:	dd400615 	stw	r21,24(sp)
   85724:	dd000515 	stw	r20,20(sp)
   85728:	dcc00415 	stw	r19,16(sp)
   8572c:	dc400215 	stw	r17,8(sp)
   85730:	dc000115 	stw	r16,4(sp)
   85734:	288002c4 	addi	r2,r5,11
   85738:	00c00584 	movi	r3,22
   8573c:	2025883a 	mov	r18,r4
   85740:	18802b2e 	bgeu	r3,r2,857f0 <_malloc_r+0xe8>
   85744:	047ffe04 	movi	r17,-8
   85748:	1462703a 	and	r17,r2,r17
   8574c:	88002a16 	blt	r17,zero,857f8 <_malloc_r+0xf0>
   85750:	89402936 	bltu	r17,r5,857f8 <_malloc_r+0xf0>
   85754:	9009883a 	mov	r4,r18
   85758:	008d7f00 	call	8d7f0 <__malloc_lock>
   8575c:	00807dc4 	movi	r2,503
   85760:	14402936 	bltu	r2,r17,85808 <_malloc_r+0x100>
   85764:	8808d0fa 	srli	r4,r17,3
   85768:	04c00274 	movhi	r19,9
   8576c:	9cc0df04 	addi	r19,r19,892
   85770:	2105883a 	add	r2,r4,r4
   85774:	1085883a 	add	r2,r2,r2
   85778:	1085883a 	add	r2,r2,r2
   8577c:	9885883a 	add	r2,r19,r2
   85780:	14000317 	ldw	r16,12(r2)
   85784:	80815226 	beq	r16,r2,85cd0 <_malloc_r+0x5c8>
   85788:	81000117 	ldw	r4,4(r16)
   8578c:	00bfff04 	movi	r2,-4
   85790:	80c00317 	ldw	r3,12(r16)
   85794:	2084703a 	and	r2,r4,r2
   85798:	8085883a 	add	r2,r16,r2
   8579c:	81000217 	ldw	r4,8(r16)
   857a0:	11400117 	ldw	r5,4(r2)
   857a4:	20c00315 	stw	r3,12(r4)
   857a8:	19000215 	stw	r4,8(r3)
   857ac:	28c00054 	ori	r3,r5,1
   857b0:	10c00115 	stw	r3,4(r2)
   857b4:	9009883a 	mov	r4,r18
   857b8:	008d8100 	call	8d810 <__malloc_unlock>
   857bc:	80800204 	addi	r2,r16,8
   857c0:	dfc00a17 	ldw	ra,40(sp)
   857c4:	df000917 	ldw	fp,36(sp)
   857c8:	ddc00817 	ldw	r23,32(sp)
   857cc:	dd800717 	ldw	r22,28(sp)
   857d0:	dd400617 	ldw	r21,24(sp)
   857d4:	dd000517 	ldw	r20,20(sp)
   857d8:	dcc00417 	ldw	r19,16(sp)
   857dc:	dc800317 	ldw	r18,12(sp)
   857e0:	dc400217 	ldw	r17,8(sp)
   857e4:	dc000117 	ldw	r16,4(sp)
   857e8:	dec00b04 	addi	sp,sp,44
   857ec:	f800283a 	ret
   857f0:	04400404 	movi	r17,16
   857f4:	897fd72e 	bgeu	r17,r5,85754 <_malloc_r+0x4c>
   857f8:	00800304 	movi	r2,12
   857fc:	90800015 	stw	r2,0(r18)
   85800:	0005883a 	mov	r2,zero
   85804:	003fee06 	br	857c0 <_malloc_r+0xb8>
   85808:	8808d27a 	srli	r4,r17,9
   8580c:	20007126 	beq	r4,zero,859d4 <_malloc_r+0x2cc>
   85810:	00800104 	movi	r2,4
   85814:	1100f536 	bltu	r2,r4,85bec <_malloc_r+0x4e4>
   85818:	8808d1ba 	srli	r4,r17,6
   8581c:	21000e04 	addi	r4,r4,56
   85820:	210b883a 	add	r5,r4,r4
   85824:	294b883a 	add	r5,r5,r5
   85828:	294b883a 	add	r5,r5,r5
   8582c:	04c00274 	movhi	r19,9
   85830:	9cc0df04 	addi	r19,r19,892
   85834:	994b883a 	add	r5,r19,r5
   85838:	2c000317 	ldw	r16,12(r5)
   8583c:	2c000e26 	beq	r5,r16,85878 <_malloc_r+0x170>
   85840:	80c00117 	ldw	r3,4(r16)
   85844:	01ffff04 	movi	r7,-4
   85848:	018003c4 	movi	r6,15
   8584c:	19c6703a 	and	r3,r3,r7
   85850:	1c45c83a 	sub	r2,r3,r17
   85854:	30800716 	blt	r6,r2,85874 <_malloc_r+0x16c>
   85858:	1000610e 	bge	r2,zero,859e0 <_malloc_r+0x2d8>
   8585c:	84000317 	ldw	r16,12(r16)
   85860:	2c000526 	beq	r5,r16,85878 <_malloc_r+0x170>
   85864:	80c00117 	ldw	r3,4(r16)
   85868:	19c6703a 	and	r3,r3,r7
   8586c:	1c45c83a 	sub	r2,r3,r17
   85870:	30bff90e 	bge	r6,r2,85858 <_malloc_r+0x150>
   85874:	213fffc4 	addi	r4,r4,-1
   85878:	21000044 	addi	r4,r4,1
   8587c:	9c000417 	ldw	r16,16(r19)
   85880:	00c00274 	movhi	r3,9
   85884:	18c0df04 	addi	r3,r3,892
   85888:	1a400204 	addi	r9,r3,8
   8588c:	82410926 	beq	r16,r9,85cb4 <_malloc_r+0x5ac>
   85890:	81400117 	ldw	r5,4(r16)
   85894:	00bfff04 	movi	r2,-4
   85898:	018003c4 	movi	r6,15
   8589c:	2884703a 	and	r2,r5,r2
   858a0:	144bc83a 	sub	r5,r2,r17
   858a4:	3140f416 	blt	r6,r5,85c78 <_malloc_r+0x570>
   858a8:	1a400515 	stw	r9,20(r3)
   858ac:	1a400415 	stw	r9,16(r3)
   858b0:	2800570e 	bge	r5,zero,85a10 <_malloc_r+0x308>
   858b4:	01407fc4 	movi	r5,511
   858b8:	2880d436 	bltu	r5,r2,85c0c <_malloc_r+0x504>
   858bc:	1004d0fa 	srli	r2,r2,3
   858c0:	02000044 	movi	r8,1
